Archive member included to satisfy reference by file (symbol)

/mnt/c/Ubuntu/gcc-arm-none/bin/../lib/gcc/arm-none-eabi/6.3.1/../../../../arm-none-eabi/lib/libc.a(lib_a-exit.o)
                              /mnt/c/Ubuntu/gcc-arm-none/bin/../lib/gcc/arm-none-eabi/6.3.1/../../../../arm-none-eabi/lib/crt0.o (exit)
/mnt/c/Ubuntu/gcc-arm-none/bin/../lib/gcc/arm-none-eabi/6.3.1/../../../../arm-none-eabi/lib/libc.a(lib_a-impure.o)
                              /mnt/c/Ubuntu/gcc-arm-none/bin/../lib/gcc/arm-none-eabi/6.3.1/../../../../arm-none-eabi/lib/libc.a(lib_a-exit.o) (_global_impure_ptr)
/mnt/c/Ubuntu/gcc-arm-none/bin/../lib/gcc/arm-none-eabi/6.3.1/../../../../arm-none-eabi/lib/libc.a(lib_a-init.o)
                              /mnt/c/Ubuntu/gcc-arm-none/bin/../lib/gcc/arm-none-eabi/6.3.1/../../../../arm-none-eabi/lib/crt0.o (__libc_init_array)
/mnt/c/Ubuntu/gcc-arm-none/bin/../lib/gcc/arm-none-eabi/6.3.1/../../../../arm-none-eabi/lib/libc.a(lib_a-__call_atexit.o)
                              /mnt/c/Ubuntu/gcc-arm-none/bin/../lib/gcc/arm-none-eabi/6.3.1/../../../../arm-none-eabi/lib/libc.a(lib_a-exit.o) (__call_exitprocs)
/mnt/c/Ubuntu/gcc-arm-none/bin/../lib/gcc/arm-none-eabi/6.3.1/../../../../arm-none-eabi/lib/libc.a(lib_a-atexit.o)
                              /mnt/c/Ubuntu/gcc-arm-none/bin/../lib/gcc/arm-none-eabi/6.3.1/../../../../arm-none-eabi/lib/libc.a(lib_a-__call_atexit.o) (atexit)
/mnt/c/Ubuntu/gcc-arm-none/bin/../lib/gcc/arm-none-eabi/6.3.1/../../../../arm-none-eabi/lib/libc.a(lib_a-fini.o)
                              /mnt/c/Ubuntu/gcc-arm-none/bin/../lib/gcc/arm-none-eabi/6.3.1/../../../../arm-none-eabi/lib/libc.a(lib_a-__call_atexit.o) (__libc_fini_array)
/mnt/c/Ubuntu/gcc-arm-none/bin/../lib/gcc/arm-none-eabi/6.3.1/../../../../arm-none-eabi/lib/libc.a(lib_a-lock.o)
                              /mnt/c/Ubuntu/gcc-arm-none/bin/../lib/gcc/arm-none-eabi/6.3.1/../../../../arm-none-eabi/lib/libc.a(lib_a-__call_atexit.o) (__retarget_lock_acquire_recursive)
/mnt/c/Ubuntu/gcc-arm-none/bin/../lib/gcc/arm-none-eabi/6.3.1/../../../../arm-none-eabi/lib/libc.a(lib_a-__atexit.o)
                              /mnt/c/Ubuntu/gcc-arm-none/bin/../lib/gcc/arm-none-eabi/6.3.1/../../../../arm-none-eabi/lib/libc.a(lib_a-atexit.o) (__register_exitproc)

Allocating common symbols
Common symbol       size              file

__lock___atexit_recursive_mutex
                    0x1               /mnt/c/Ubuntu/gcc-arm-none/bin/../lib/gcc/arm-none-eabi/6.3.1/../../../../arm-none-eabi/lib/libc.a(lib_a-lock.o)
__lock___arc4random_mutex
                    0x1               /mnt/c/Ubuntu/gcc-arm-none/bin/../lib/gcc/arm-none-eabi/6.3.1/../../../../arm-none-eabi/lib/libc.a(lib_a-lock.o)
__lock___env_recursive_mutex
                    0x1               /mnt/c/Ubuntu/gcc-arm-none/bin/../lib/gcc/arm-none-eabi/6.3.1/../../../../arm-none-eabi/lib/libc.a(lib_a-lock.o)
__lock___sinit_recursive_mutex
                    0x1               /mnt/c/Ubuntu/gcc-arm-none/bin/../lib/gcc/arm-none-eabi/6.3.1/../../../../arm-none-eabi/lib/libc.a(lib_a-lock.o)
__lock___malloc_recursive_mutex
                    0x1               /mnt/c/Ubuntu/gcc-arm-none/bin/../lib/gcc/arm-none-eabi/6.3.1/../../../../arm-none-eabi/lib/libc.a(lib_a-lock.o)
__lock___at_quick_exit_mutex
                    0x1               /mnt/c/Ubuntu/gcc-arm-none/bin/../lib/gcc/arm-none-eabi/6.3.1/../../../../arm-none-eabi/lib/libc.a(lib_a-lock.o)
__lock___dd_hash_mutex
                    0x1               /mnt/c/Ubuntu/gcc-arm-none/bin/../lib/gcc/arm-none-eabi/6.3.1/../../../../arm-none-eabi/lib/libc.a(lib_a-lock.o)
__lock___tz_mutex   0x1               /mnt/c/Ubuntu/gcc-arm-none/bin/../lib/gcc/arm-none-eabi/6.3.1/../../../../arm-none-eabi/lib/libc.a(lib_a-lock.o)
__lock___sfp_recursive_mutex
                    0x1               /mnt/c/Ubuntu/gcc-arm-none/bin/../lib/gcc/arm-none-eabi/6.3.1/../../../../arm-none-eabi/lib/libc.a(lib_a-lock.o)

Discarded input sections

 .text          0x0000000000000000        0x0 /mnt/c/Ubuntu/gcc-arm-none/bin/../lib/gcc/arm-none-eabi/6.3.1/crti.o
 .data          0x0000000000000000        0x0 /mnt/c/Ubuntu/gcc-arm-none/bin/../lib/gcc/arm-none-eabi/6.3.1/crti.o
 .bss           0x0000000000000000        0x0 /mnt/c/Ubuntu/gcc-arm-none/bin/../lib/gcc/arm-none-eabi/6.3.1/crti.o
 .text          0x0000000000000000       0xbc /mnt/c/Ubuntu/gcc-arm-none/bin/../lib/gcc/arm-none-eabi/6.3.1/crtbegin.o
 .data          0x0000000000000000        0x4 /mnt/c/Ubuntu/gcc-arm-none/bin/../lib/gcc/arm-none-eabi/6.3.1/crtbegin.o
 .bss           0x0000000000000000       0x1c /mnt/c/Ubuntu/gcc-arm-none/bin/../lib/gcc/arm-none-eabi/6.3.1/crtbegin.o
 .init_array    0x0000000000000000        0x4 /mnt/c/Ubuntu/gcc-arm-none/bin/../lib/gcc/arm-none-eabi/6.3.1/crtbegin.o
 .fini_array    0x0000000000000000        0x4 /mnt/c/Ubuntu/gcc-arm-none/bin/../lib/gcc/arm-none-eabi/6.3.1/crtbegin.o
 .eh_frame      0x0000000000000000        0x0 /mnt/c/Ubuntu/gcc-arm-none/bin/../lib/gcc/arm-none-eabi/6.3.1/crtbegin.o
 .jcr           0x0000000000000000        0x0 /mnt/c/Ubuntu/gcc-arm-none/bin/../lib/gcc/arm-none-eabi/6.3.1/crtbegin.o
 .ARM.attributes
                0x0000000000000000       0x30 /mnt/c/Ubuntu/gcc-arm-none/bin/../lib/gcc/arm-none-eabi/6.3.1/crtbegin.o
 .text          0x0000000000000000      0x114 /mnt/c/Ubuntu/gcc-arm-none/bin/../lib/gcc/arm-none-eabi/6.3.1/../../../../arm-none-eabi/lib/crt0.o
 .data          0x0000000000000000        0x0 /mnt/c/Ubuntu/gcc-arm-none/bin/../lib/gcc/arm-none-eabi/6.3.1/../../../../arm-none-eabi/lib/crt0.o
 .bss           0x0000000000000000        0x0 /mnt/c/Ubuntu/gcc-arm-none/bin/../lib/gcc/arm-none-eabi/6.3.1/../../../../arm-none-eabi/lib/crt0.o
 .ARM.extab     0x0000000000000000        0x0 /mnt/c/Ubuntu/gcc-arm-none/bin/../lib/gcc/arm-none-eabi/6.3.1/../../../../arm-none-eabi/lib/crt0.o
 .ARM.exidx     0x0000000000000000        0x8 /mnt/c/Ubuntu/gcc-arm-none/bin/../lib/gcc/arm-none-eabi/6.3.1/../../../../arm-none-eabi/lib/crt0.o
 .ARM.attributes
                0x0000000000000000       0x14 /mnt/c/Ubuntu/gcc-arm-none/bin/../lib/gcc/arm-none-eabi/6.3.1/../../../../arm-none-eabi/lib/crt0.o
 .text          0x0000000000000000        0x0 build-MT7687Lite/py/mpstate.o
 .data          0x0000000000000000        0x0 build-MT7687Lite/py/mpstate.o
 .bss           0x0000000000000000        0x0 build-MT7687Lite/py/mpstate.o
 .text          0x0000000000000000        0x0 build-MT7687Lite/py/nlr.o
 .data          0x0000000000000000        0x0 build-MT7687Lite/py/nlr.o
 .bss           0x0000000000000000        0x0 build-MT7687Lite/py/nlr.o
 .text          0x0000000000000000        0x0 build-MT7687Lite/py/nlrx86.o
 .data          0x0000000000000000        0x0 build-MT7687Lite/py/nlrx86.o
 .bss           0x0000000000000000        0x0 build-MT7687Lite/py/nlrx86.o
 .debug_info    0x0000000000000000     0x1bd3 build-MT7687Lite/py/nlrx86.o
 .debug_abbrev  0x0000000000000000      0x223 build-MT7687Lite/py/nlrx86.o
 .debug_aranges
                0x0000000000000000       0x18 build-MT7687Lite/py/nlrx86.o
 .debug_line    0x0000000000000000      0x266 build-MT7687Lite/py/nlrx86.o
 .debug_str     0x0000000000000000     0x1b1d build-MT7687Lite/py/nlrx86.o
 .comment       0x0000000000000000       0x80 build-MT7687Lite/py/nlrx86.o
 .ARM.attributes
                0x0000000000000000       0x31 build-MT7687Lite/py/nlrx86.o
 .text          0x0000000000000000        0x0 build-MT7687Lite/py/nlrx64.o
 .data          0x0000000000000000        0x0 build-MT7687Lite/py/nlrx64.o
 .bss           0x0000000000000000        0x0 build-MT7687Lite/py/nlrx64.o
 .debug_info    0x0000000000000000     0x1bd3 build-MT7687Lite/py/nlrx64.o
 .debug_abbrev  0x0000000000000000      0x223 build-MT7687Lite/py/nlrx64.o
 .debug_aranges
                0x0000000000000000       0x18 build-MT7687Lite/py/nlrx64.o
 .debug_line    0x0000000000000000      0x266 build-MT7687Lite/py/nlrx64.o
 .debug_str     0x0000000000000000     0x1b1d build-MT7687Lite/py/nlrx64.o
 .comment       0x0000000000000000       0x80 build-MT7687Lite/py/nlrx64.o
 .ARM.attributes
                0x0000000000000000       0x31 build-MT7687Lite/py/nlrx64.o
 .text          0x0000000000000000        0x0 build-MT7687Lite/py/nlrthumb.o
 .data          0x0000000000000000        0x0 build-MT7687Lite/py/nlrthumb.o
 .bss           0x0000000000000000        0x0 build-MT7687Lite/py/nlrthumb.o
 .text          0x0000000000000000        0x0 build-MT7687Lite/py/nlrxtensa.o
 .data          0x0000000000000000        0x0 build-MT7687Lite/py/nlrxtensa.o
 .bss           0x0000000000000000        0x0 build-MT7687Lite/py/nlrxtensa.o
 .debug_info    0x0000000000000000     0x1bd3 build-MT7687Lite/py/nlrxtensa.o
 .debug_abbrev  0x0000000000000000      0x223 build-MT7687Lite/py/nlrxtensa.o
 .debug_aranges
                0x0000000000000000       0x18 build-MT7687Lite/py/nlrxtensa.o
 .debug_line    0x0000000000000000      0x266 build-MT7687Lite/py/nlrxtensa.o
 .debug_str     0x0000000000000000     0x1b20 build-MT7687Lite/py/nlrxtensa.o
 .comment       0x0000000000000000       0x80 build-MT7687Lite/py/nlrxtensa.o
 .ARM.attributes
                0x0000000000000000       0x31 build-MT7687Lite/py/nlrxtensa.o
 .text          0x0000000000000000        0x0 build-MT7687Lite/py/nlrsetjmp.o
 .data          0x0000000000000000        0x0 build-MT7687Lite/py/nlrsetjmp.o
 .bss           0x0000000000000000        0x0 build-MT7687Lite/py/nlrsetjmp.o
 .debug_info    0x0000000000000000     0x1bd3 build-MT7687Lite/py/nlrsetjmp.o
 .debug_abbrev  0x0000000000000000      0x223 build-MT7687Lite/py/nlrsetjmp.o
 .debug_aranges
                0x0000000000000000       0x18 build-MT7687Lite/py/nlrsetjmp.o
 .debug_line    0x0000000000000000      0x266 build-MT7687Lite/py/nlrsetjmp.o
 .debug_str     0x0000000000000000     0x1b20 build-MT7687Lite/py/nlrsetjmp.o
 .comment       0x0000000000000000       0x80 build-MT7687Lite/py/nlrsetjmp.o
 .ARM.attributes
                0x0000000000000000       0x31 build-MT7687Lite/py/nlrsetjmp.o
 .text          0x0000000000000000        0x0 build-MT7687Lite/py/malloc.o
 .data          0x0000000000000000        0x0 build-MT7687Lite/py/malloc.o
 .bss           0x0000000000000000        0x0 build-MT7687Lite/py/malloc.o
 .text          0x0000000000000000        0x0 build-MT7687Lite/py/gc.o
 .data          0x0000000000000000        0x0 build-MT7687Lite/py/gc.o
 .bss           0x0000000000000000        0x0 build-MT7687Lite/py/gc.o
 .text.gc_sweep_all
                0x0000000000000000       0x1c build-MT7687Lite/py/gc.o
 .text.gc_dump_alloc_table
                0x0000000000000000      0x19c build-MT7687Lite/py/gc.o
 .rodata.gc_dump_alloc_table.str1.4
                0x0000000000000000       0x47 build-MT7687Lite/py/gc.o
 .text          0x0000000000000000        0x0 build-MT7687Lite/py/pystack.o
 .data          0x0000000000000000        0x0 build-MT7687Lite/py/pystack.o
 .bss           0x0000000000000000        0x0 build-MT7687Lite/py/pystack.o
 .debug_info    0x0000000000000000     0x1bf9 build-MT7687Lite/py/pystack.o
 .debug_abbrev  0x0000000000000000      0x228 build-MT7687Lite/py/pystack.o
 .debug_aranges
                0x0000000000000000       0x18 build-MT7687Lite/py/pystack.o
 .debug_line    0x0000000000000000      0x273 build-MT7687Lite/py/pystack.o
 .debug_str     0x0000000000000000     0x1b4b build-MT7687Lite/py/pystack.o
 .comment       0x0000000000000000       0x80 build-MT7687Lite/py/pystack.o
 .ARM.attributes
                0x0000000000000000       0x31 build-MT7687Lite/py/pystack.o
 .text          0x0000000000000000        0x0 build-MT7687Lite/py/qstr.o
 .data          0x0000000000000000        0x0 build-MT7687Lite/py/qstr.o
 .bss           0x0000000000000000        0x0 build-MT7687Lite/py/qstr.o
 .text          0x0000000000000000        0x0 build-MT7687Lite/py/vstr.o
 .data          0x0000000000000000        0x0 build-MT7687Lite/py/vstr.o
 .bss           0x0000000000000000        0x0 build-MT7687Lite/py/vstr.o
 .text.vstr_hint_size
                0x0000000000000000        0x4 build-MT7687Lite/py/vstr.o
 .text.vstr_cut_head_bytes
                0x0000000000000000        0x8 build-MT7687Lite/py/vstr.o
 .text.vstr_vprintf
                0x0000000000000000       0x18 build-MT7687Lite/py/vstr.o
 .text.vstr_printf
                0x0000000000000000       0x1a build-MT7687Lite/py/vstr.o
 .text          0x0000000000000000        0x0 build-MT7687Lite/py/mpprint.o
 .data          0x0000000000000000        0x0 build-MT7687Lite/py/mpprint.o
 .bss           0x0000000000000000        0x0 build-MT7687Lite/py/mpprint.o
 .text          0x0000000000000000        0x0 build-MT7687Lite/py/unicode.o
 .data          0x0000000000000000        0x0 build-MT7687Lite/py/unicode.o
 .bss           0x0000000000000000        0x0 build-MT7687Lite/py/unicode.o
 .text          0x0000000000000000        0x0 build-MT7687Lite/py/mpz.o
 .data          0x0000000000000000        0x0 build-MT7687Lite/py/mpz.o
 .bss           0x0000000000000000        0x0 build-MT7687Lite/py/mpz.o
 .text.mpz_pow3_inpl
                0x0000000000000000       0xae build-MT7687Lite/py/mpz.o
 .text.mpz_as_uint_checked
                0x0000000000000000       0x30 build-MT7687Lite/py/mpz.o
 .text          0x0000000000000000        0x0 build-MT7687Lite/py/reader.o
 .data          0x0000000000000000        0x0 build-MT7687Lite/py/reader.o
 .bss           0x0000000000000000        0x0 build-MT7687Lite/py/reader.o
 .text          0x0000000000000000        0x0 build-MT7687Lite/py/lexer.o
 .data          0x0000000000000000        0x0 build-MT7687Lite/py/lexer.o
 .bss           0x0000000000000000        0x0 build-MT7687Lite/py/lexer.o
 .text          0x0000000000000000        0x0 build-MT7687Lite/py/parse.o
 .data          0x0000000000000000        0x0 build-MT7687Lite/py/parse.o
 .bss           0x0000000000000000        0x0 build-MT7687Lite/py/parse.o
 .text          0x0000000000000000        0x0 build-MT7687Lite/py/scope.o
 .data          0x0000000000000000        0x0 build-MT7687Lite/py/scope.o
 .bss           0x0000000000000000        0x0 build-MT7687Lite/py/scope.o
 .text          0x0000000000000000        0x0 build-MT7687Lite/py/compile.o
 .data          0x0000000000000000        0x0 build-MT7687Lite/py/compile.o
 .bss           0x0000000000000000        0x0 build-MT7687Lite/py/compile.o
 .text          0x0000000000000000        0x0 build-MT7687Lite/py/emitcommon.o
 .data          0x0000000000000000        0x0 build-MT7687Lite/py/emitcommon.o
 .bss           0x0000000000000000        0x0 build-MT7687Lite/py/emitcommon.o
 .text          0x0000000000000000        0x0 build-MT7687Lite/py/emitbc.o
 .data          0x0000000000000000        0x0 build-MT7687Lite/py/emitbc.o
 .bss           0x0000000000000000        0x0 build-MT7687Lite/py/emitbc.o
 .text          0x0000000000000000        0x0 build-MT7687Lite/py/asmbase.o
 .data          0x0000000000000000        0x0 build-MT7687Lite/py/asmbase.o
 .bss           0x0000000000000000        0x0 build-MT7687Lite/py/asmbase.o
 .debug_info    0x0000000000000000     0x1545 build-MT7687Lite/py/asmbase.o
 .debug_abbrev  0x0000000000000000      0x1f8 build-MT7687Lite/py/asmbase.o
 .debug_aranges
                0x0000000000000000       0x18 build-MT7687Lite/py/asmbase.o
 .debug_line    0x0000000000000000      0x1af build-MT7687Lite/py/asmbase.o
 .debug_str     0x0000000000000000     0x1561 build-MT7687Lite/py/asmbase.o
 .comment       0x0000000000000000       0x80 build-MT7687Lite/py/asmbase.o
 .ARM.attributes
                0x0000000000000000       0x31 build-MT7687Lite/py/asmbase.o
 .text          0x0000000000000000        0x0 build-MT7687Lite/py/asmx64.o
 .data          0x0000000000000000        0x0 build-MT7687Lite/py/asmx64.o
 .bss           0x0000000000000000        0x0 build-MT7687Lite/py/asmx64.o
 .debug_info    0x0000000000000000      0x963 build-MT7687Lite/py/asmx64.o
 .debug_abbrev  0x0000000000000000      0x192 build-MT7687Lite/py/asmx64.o
 .debug_aranges
                0x0000000000000000       0x18 build-MT7687Lite/py/asmx64.o
 .debug_line    0x0000000000000000      0x16e build-MT7687Lite/py/asmx64.o
 .debug_str     0x0000000000000000      0x6dc build-MT7687Lite/py/asmx64.o
 .comment       0x0000000000000000       0x80 build-MT7687Lite/py/asmx64.o
 .ARM.attributes
                0x0000000000000000       0x31 build-MT7687Lite/py/asmx64.o
 .text          0x0000000000000000        0x0 build-MT7687Lite/py/emitnx64.o
 .data          0x0000000000000000        0x0 build-MT7687Lite/py/emitnx64.o
 .bss           0x0000000000000000        0x0 build-MT7687Lite/py/emitnx64.o
 .debug_info    0x0000000000000000      0x963 build-MT7687Lite/py/emitnx64.o
 .debug_abbrev  0x0000000000000000      0x192 build-MT7687Lite/py/emitnx64.o
 .debug_aranges
                0x0000000000000000       0x18 build-MT7687Lite/py/emitnx64.o
 .debug_line    0x0000000000000000      0x16e build-MT7687Lite/py/emitnx64.o
 .debug_str     0x0000000000000000      0x6de build-MT7687Lite/py/emitnx64.o
 .comment       0x0000000000000000       0x80 build-MT7687Lite/py/emitnx64.o
 .ARM.attributes
                0x0000000000000000       0x31 build-MT7687Lite/py/emitnx64.o
 .text          0x0000000000000000        0x0 build-MT7687Lite/py/asmx86.o
 .data          0x0000000000000000        0x0 build-MT7687Lite/py/asmx86.o
 .bss           0x0000000000000000        0x0 build-MT7687Lite/py/asmx86.o
 .debug_info    0x0000000000000000      0x963 build-MT7687Lite/py/asmx86.o
 .debug_abbrev  0x0000000000000000      0x192 build-MT7687Lite/py/asmx86.o
 .debug_aranges
                0x0000000000000000       0x18 build-MT7687Lite/py/asmx86.o
 .debug_line    0x0000000000000000      0x16e build-MT7687Lite/py/asmx86.o
 .debug_str     0x0000000000000000      0x6dc build-MT7687Lite/py/asmx86.o
 .comment       0x0000000000000000       0x80 build-MT7687Lite/py/asmx86.o
 .ARM.attributes
                0x0000000000000000       0x31 build-MT7687Lite/py/asmx86.o
 .text          0x0000000000000000        0x0 build-MT7687Lite/py/emitnx86.o
 .data          0x0000000000000000        0x0 build-MT7687Lite/py/emitnx86.o
 .bss           0x0000000000000000        0x0 build-MT7687Lite/py/emitnx86.o
 .debug_info    0x0000000000000000      0x988 build-MT7687Lite/py/emitnx86.o
 .debug_abbrev  0x0000000000000000      0x192 build-MT7687Lite/py/emitnx86.o
 .debug_aranges
                0x0000000000000000       0x18 build-MT7687Lite/py/emitnx86.o
 .debug_line    0x0000000000000000      0x185 build-MT7687Lite/py/emitnx86.o
 .debug_str     0x0000000000000000      0x6eb build-MT7687Lite/py/emitnx86.o
 .comment       0x0000000000000000       0x80 build-MT7687Lite/py/emitnx86.o
 .ARM.attributes
                0x0000000000000000       0x31 build-MT7687Lite/py/emitnx86.o
 .text          0x0000000000000000        0x0 build-MT7687Lite/py/asmthumb.o
 .data          0x0000000000000000        0x0 build-MT7687Lite/py/asmthumb.o
 .bss           0x0000000000000000        0x0 build-MT7687Lite/py/asmthumb.o
 .debug_info    0x0000000000000000      0x963 build-MT7687Lite/py/asmthumb.o
 .debug_abbrev  0x0000000000000000      0x192 build-MT7687Lite/py/asmthumb.o
 .debug_aranges
                0x0000000000000000       0x18 build-MT7687Lite/py/asmthumb.o
 .debug_line    0x0000000000000000      0x16e build-MT7687Lite/py/asmthumb.o
 .debug_str     0x0000000000000000      0x6de build-MT7687Lite/py/asmthumb.o
 .comment       0x0000000000000000       0x80 build-MT7687Lite/py/asmthumb.o
 .ARM.attributes
                0x0000000000000000       0x31 build-MT7687Lite/py/asmthumb.o
 .text          0x0000000000000000        0x0 build-MT7687Lite/py/emitnthumb.o
 .data          0x0000000000000000        0x0 build-MT7687Lite/py/emitnthumb.o
 .bss           0x0000000000000000        0x0 build-MT7687Lite/py/emitnthumb.o
 .debug_info    0x0000000000000000      0x963 build-MT7687Lite/py/emitnthumb.o
 .debug_abbrev  0x0000000000000000      0x192 build-MT7687Lite/py/emitnthumb.o
 .debug_aranges
                0x0000000000000000       0x18 build-MT7687Lite/py/emitnthumb.o
 .debug_line    0x0000000000000000      0x16e build-MT7687Lite/py/emitnthumb.o
 .debug_str     0x0000000000000000      0x6e0 build-MT7687Lite/py/emitnthumb.o
 .comment       0x0000000000000000       0x80 build-MT7687Lite/py/emitnthumb.o
 .ARM.attributes
                0x0000000000000000       0x31 build-MT7687Lite/py/emitnthumb.o
 .text          0x0000000000000000        0x0 build-MT7687Lite/py/emitinlinethumb.o
 .data          0x0000000000000000        0x0 build-MT7687Lite/py/emitinlinethumb.o
 .bss           0x0000000000000000        0x0 build-MT7687Lite/py/emitinlinethumb.o
 .debug_info    0x0000000000000000     0x2117 build-MT7687Lite/py/emitinlinethumb.o
 .debug_abbrev  0x0000000000000000      0x21e build-MT7687Lite/py/emitinlinethumb.o
 .debug_aranges
                0x0000000000000000       0x18 build-MT7687Lite/py/emitinlinethumb.o
 .debug_line    0x0000000000000000      0x1e8 build-MT7687Lite/py/emitinlinethumb.o
 .debug_str     0x0000000000000000     0x23a0 build-MT7687Lite/py/emitinlinethumb.o
 .comment       0x0000000000000000       0x80 build-MT7687Lite/py/emitinlinethumb.o
 .ARM.attributes
                0x0000000000000000       0x31 build-MT7687Lite/py/emitinlinethumb.o
 .text          0x0000000000000000        0x0 build-MT7687Lite/py/asmarm.o
 .data          0x0000000000000000        0x0 build-MT7687Lite/py/asmarm.o
 .bss           0x0000000000000000        0x0 build-MT7687Lite/py/asmarm.o
 .debug_info    0x0000000000000000      0x963 build-MT7687Lite/py/asmarm.o
 .debug_abbrev  0x0000000000000000      0x192 build-MT7687Lite/py/asmarm.o
 .debug_aranges
                0x0000000000000000       0x18 build-MT7687Lite/py/asmarm.o
 .debug_line    0x0000000000000000      0x16e build-MT7687Lite/py/asmarm.o
 .debug_str     0x0000000000000000      0x6dc build-MT7687Lite/py/asmarm.o
 .comment       0x0000000000000000       0x80 build-MT7687Lite/py/asmarm.o
 .ARM.attributes
                0x0000000000000000       0x31 build-MT7687Lite/py/asmarm.o
 .text          0x0000000000000000        0x0 build-MT7687Lite/py/emitnarm.o
 .data          0x0000000000000000        0x0 build-MT7687Lite/py/emitnarm.o
 .bss           0x0000000000000000        0x0 build-MT7687Lite/py/emitnarm.o
 .debug_info    0x0000000000000000      0x963 build-MT7687Lite/py/emitnarm.o
 .debug_abbrev  0x0000000000000000      0x192 build-MT7687Lite/py/emitnarm.o
 .debug_aranges
                0x0000000000000000       0x18 build-MT7687Lite/py/emitnarm.o
 .debug_line    0x0000000000000000      0x16e build-MT7687Lite/py/emitnarm.o
 .debug_str     0x0000000000000000      0x6de build-MT7687Lite/py/emitnarm.o
 .comment       0x0000000000000000       0x80 build-MT7687Lite/py/emitnarm.o
 .ARM.attributes
                0x0000000000000000       0x31 build-MT7687Lite/py/emitnarm.o
 .text          0x0000000000000000        0x0 build-MT7687Lite/py/asmxtensa.o
 .data          0x0000000000000000        0x0 build-MT7687Lite/py/asmxtensa.o
 .bss           0x0000000000000000        0x0 build-MT7687Lite/py/asmxtensa.o
 .debug_info    0x0000000000000000      0x963 build-MT7687Lite/py/asmxtensa.o
 .debug_abbrev  0x0000000000000000      0x192 build-MT7687Lite/py/asmxtensa.o
 .debug_aranges
                0x0000000000000000       0x18 build-MT7687Lite/py/asmxtensa.o
 .debug_line    0x0000000000000000      0x16e build-MT7687Lite/py/asmxtensa.o
 .debug_str     0x0000000000000000      0x6df build-MT7687Lite/py/asmxtensa.o
 .comment       0x0000000000000000       0x80 build-MT7687Lite/py/asmxtensa.o
 .ARM.attributes
                0x0000000000000000       0x31 build-MT7687Lite/py/asmxtensa.o
 .text          0x0000000000000000        0x0 build-MT7687Lite/py/emitnxtensa.o
 .data          0x0000000000000000        0x0 build-MT7687Lite/py/emitnxtensa.o
 .bss           0x0000000000000000        0x0 build-MT7687Lite/py/emitnxtensa.o
 .debug_info    0x0000000000000000      0x963 build-MT7687Lite/py/emitnxtensa.o
 .debug_abbrev  0x0000000000000000      0x192 build-MT7687Lite/py/emitnxtensa.o
 .debug_aranges
                0x0000000000000000       0x18 build-MT7687Lite/py/emitnxtensa.o
 .debug_line    0x0000000000000000      0x16e build-MT7687Lite/py/emitnxtensa.o
 .debug_str     0x0000000000000000      0x6e1 build-MT7687Lite/py/emitnxtensa.o
 .comment       0x0000000000000000       0x80 build-MT7687Lite/py/emitnxtensa.o
 .ARM.attributes
                0x0000000000000000       0x31 build-MT7687Lite/py/emitnxtensa.o
 .text          0x0000000000000000        0x0 build-MT7687Lite/py/emitinlinextensa.o
 .data          0x0000000000000000        0x0 build-MT7687Lite/py/emitinlinextensa.o
 .bss           0x0000000000000000        0x0 build-MT7687Lite/py/emitinlinextensa.o
 .debug_info    0x0000000000000000     0x2117 build-MT7687Lite/py/emitinlinextensa.o
 .debug_abbrev  0x0000000000000000      0x21e build-MT7687Lite/py/emitinlinextensa.o
 .debug_aranges
                0x0000000000000000       0x18 build-MT7687Lite/py/emitinlinextensa.o
 .debug_line    0x0000000000000000      0x1e8 build-MT7687Lite/py/emitinlinextensa.o
 .debug_str     0x0000000000000000     0x23a1 build-MT7687Lite/py/emitinlinextensa.o
 .comment       0x0000000000000000       0x80 build-MT7687Lite/py/emitinlinextensa.o
 .ARM.attributes
                0x0000000000000000       0x31 build-MT7687Lite/py/emitinlinextensa.o
 .text          0x0000000000000000        0x0 build-MT7687Lite/py/formatfloat.o
 .data          0x0000000000000000        0x0 build-MT7687Lite/py/formatfloat.o
 .bss           0x0000000000000000        0x0 build-MT7687Lite/py/formatfloat.o
 .debug_info    0x0000000000000000      0x963 build-MT7687Lite/py/formatfloat.o
 .debug_abbrev  0x0000000000000000      0x192 build-MT7687Lite/py/formatfloat.o
 .debug_aranges
                0x0000000000000000       0x18 build-MT7687Lite/py/formatfloat.o
 .debug_line    0x0000000000000000      0x16e build-MT7687Lite/py/formatfloat.o
 .debug_str     0x0000000000000000      0x6e1 build-MT7687Lite/py/formatfloat.o
 .comment       0x0000000000000000       0x80 build-MT7687Lite/py/formatfloat.o
 .ARM.attributes
                0x0000000000000000       0x31 build-MT7687Lite/py/formatfloat.o
 .text          0x0000000000000000        0x0 build-MT7687Lite/py/parsenumbase.o
 .data          0x0000000000000000        0x0 build-MT7687Lite/py/parsenumbase.o
 .bss           0x0000000000000000        0x0 build-MT7687Lite/py/parsenumbase.o
 .text          0x0000000000000000        0x0 build-MT7687Lite/py/parsenum.o
 .data          0x0000000000000000        0x0 build-MT7687Lite/py/parsenum.o
 .bss           0x0000000000000000        0x0 build-MT7687Lite/py/parsenum.o
 .text          0x0000000000000000        0x0 build-MT7687Lite/py/emitglue.o
 .data          0x0000000000000000        0x0 build-MT7687Lite/py/emitglue.o
 .bss           0x0000000000000000        0x0 build-MT7687Lite/py/emitglue.o
 .text          0x0000000000000000        0x0 build-MT7687Lite/py/persistentcode.o
 .data          0x0000000000000000        0x0 build-MT7687Lite/py/persistentcode.o
 .bss           0x0000000000000000        0x0 build-MT7687Lite/py/persistentcode.o
 .text.mp_raw_code_load_mem
                0x0000000000000000       0x1a build-MT7687Lite/py/persistentcode.o
 .text          0x0000000000000000        0x0 build-MT7687Lite/py/runtime.o
 .data          0x0000000000000000        0x0 build-MT7687Lite/py/runtime.o
 .bss           0x0000000000000000        0x0 build-MT7687Lite/py/runtime.o
 .text.mp_deinit
                0x0000000000000000        0x2 build-MT7687Lite/py/runtime.o
 .text.mp_call_function_2
                0x0000000000000000       0x16 build-MT7687Lite/py/runtime.o
 .text          0x0000000000000000        0x0 build-MT7687Lite/py/runtime_utils.o
 .data          0x0000000000000000        0x0 build-MT7687Lite/py/runtime_utils.o
 .bss           0x0000000000000000        0x0 build-MT7687Lite/py/runtime_utils.o
 .text.mp_call_function_2_protected
                0x0000000000000000       0x38 build-MT7687Lite/py/runtime_utils.o
 .text          0x0000000000000000        0x0 build-MT7687Lite/py/scheduler.o
 .data          0x0000000000000000        0x0 build-MT7687Lite/py/scheduler.o
 .bss           0x0000000000000000        0x0 build-MT7687Lite/py/scheduler.o
 .text.mp_handle_pending
                0x0000000000000000       0x18 build-MT7687Lite/py/scheduler.o
 .debug_info    0x0000000000000000     0x1c44 build-MT7687Lite/py/scheduler.o
 .debug_abbrev  0x0000000000000000      0x27a build-MT7687Lite/py/scheduler.o
 .debug_loc     0x0000000000000000       0x13 build-MT7687Lite/py/scheduler.o
 .debug_aranges
                0x0000000000000000       0x20 build-MT7687Lite/py/scheduler.o
 .debug_ranges  0x0000000000000000       0x10 build-MT7687Lite/py/scheduler.o
 .debug_line    0x0000000000000000      0x296 build-MT7687Lite/py/scheduler.o
 .debug_str     0x0000000000000000     0x1b68 build-MT7687Lite/py/scheduler.o
 .comment       0x0000000000000000       0x80 build-MT7687Lite/py/scheduler.o
 .debug_frame   0x0000000000000000       0x28 build-MT7687Lite/py/scheduler.o
 .ARM.attributes
                0x0000000000000000       0x31 build-MT7687Lite/py/scheduler.o
 .text          0x0000000000000000        0x0 build-MT7687Lite/py/nativeglue.o
 .data          0x0000000000000000        0x0 build-MT7687Lite/py/nativeglue.o
 .bss           0x0000000000000000        0x0 build-MT7687Lite/py/nativeglue.o
 .debug_info    0x0000000000000000     0x1bf9 build-MT7687Lite/py/nativeglue.o
 .debug_abbrev  0x0000000000000000      0x228 build-MT7687Lite/py/nativeglue.o
 .debug_aranges
                0x0000000000000000       0x18 build-MT7687Lite/py/nativeglue.o
 .debug_line    0x0000000000000000      0x273 build-MT7687Lite/py/nativeglue.o
 .debug_str     0x0000000000000000     0x1b4e build-MT7687Lite/py/nativeglue.o
 .comment       0x0000000000000000       0x80 build-MT7687Lite/py/nativeglue.o
 .ARM.attributes
                0x0000000000000000       0x31 build-MT7687Lite/py/nativeglue.o
 .text          0x0000000000000000        0x0 build-MT7687Lite/py/stackctrl.o
 .data          0x0000000000000000        0x0 build-MT7687Lite/py/stackctrl.o
 .bss           0x0000000000000000        0x0 build-MT7687Lite/py/stackctrl.o
 .text.mp_stack_ctrl_init
                0x0000000000000000       0x10 build-MT7687Lite/py/stackctrl.o
 .text.mp_stack_usage
                0x0000000000000000       0x12 build-MT7687Lite/py/stackctrl.o
 .text          0x0000000000000000        0x0 build-MT7687Lite/py/argcheck.o
 .data          0x0000000000000000        0x0 build-MT7687Lite/py/argcheck.o
 .bss           0x0000000000000000        0x0 build-MT7687Lite/py/argcheck.o
 .text          0x0000000000000000        0x0 build-MT7687Lite/py/warning.o
 .data          0x0000000000000000        0x0 build-MT7687Lite/py/warning.o
 .bss           0x0000000000000000        0x0 build-MT7687Lite/py/warning.o
 .debug_info    0x0000000000000000     0x279f build-MT7687Lite/py/warning.o
 .debug_abbrev  0x0000000000000000      0x239 build-MT7687Lite/py/warning.o
 .debug_aranges
                0x0000000000000000       0x18 build-MT7687Lite/py/warning.o
 .debug_line    0x0000000000000000      0x2ac build-MT7687Lite/py/warning.o
 .debug_str     0x0000000000000000     0x296b build-MT7687Lite/py/warning.o
 .comment       0x0000000000000000       0x80 build-MT7687Lite/py/warning.o
 .ARM.attributes
                0x0000000000000000       0x31 build-MT7687Lite/py/warning.o
 .text          0x0000000000000000        0x0 build-MT7687Lite/py/map.o
 .data          0x0000000000000000        0x0 build-MT7687Lite/py/map.o
 .bss           0x0000000000000000        0x0 build-MT7687Lite/py/map.o
 .text          0x0000000000000000        0x0 build-MT7687Lite/py/obj.o
 .data          0x0000000000000000        0x0 build-MT7687Lite/py/obj.o
 .bss           0x0000000000000000        0x0 build-MT7687Lite/py/obj.o
 .text          0x0000000000000000        0x0 build-MT7687Lite/py/objarray.o
 .data          0x0000000000000000        0x0 build-MT7687Lite/py/objarray.o
 .bss           0x0000000000000000        0x0 build-MT7687Lite/py/objarray.o
 .text.mp_obj_new_bytearray
                0x0000000000000000       0x1e build-MT7687Lite/py/objarray.o
 .text.mp_obj_new_bytearray_by_ref
                0x0000000000000000       0x28 build-MT7687Lite/py/objarray.o
 .text          0x0000000000000000        0x0 build-MT7687Lite/py/objattrtuple.o
 .data          0x0000000000000000        0x0 build-MT7687Lite/py/objattrtuple.o
 .bss           0x0000000000000000        0x0 build-MT7687Lite/py/objattrtuple.o
 .text.mp_obj_new_attrtuple
                0x0000000000000000       0x38 build-MT7687Lite/py/objattrtuple.o
 .text          0x0000000000000000        0x0 build-MT7687Lite/py/objbool.o
 .data          0x0000000000000000        0x0 build-MT7687Lite/py/objbool.o
 .bss           0x0000000000000000        0x0 build-MT7687Lite/py/objbool.o
 .text          0x0000000000000000        0x0 build-MT7687Lite/py/objboundmeth.o
 .data          0x0000000000000000        0x0 build-MT7687Lite/py/objboundmeth.o
 .bss           0x0000000000000000        0x0 build-MT7687Lite/py/objboundmeth.o
 .text          0x0000000000000000        0x0 build-MT7687Lite/py/objcell.o
 .data          0x0000000000000000        0x0 build-MT7687Lite/py/objcell.o
 .bss           0x0000000000000000        0x0 build-MT7687Lite/py/objcell.o
 .text          0x0000000000000000        0x0 build-MT7687Lite/py/objclosure.o
 .data          0x0000000000000000        0x0 build-MT7687Lite/py/objclosure.o
 .bss           0x0000000000000000        0x0 build-MT7687Lite/py/objclosure.o
 .text          0x0000000000000000        0x0 build-MT7687Lite/py/objcomplex.o
 .data          0x0000000000000000        0x0 build-MT7687Lite/py/objcomplex.o
 .bss           0x0000000000000000        0x0 build-MT7687Lite/py/objcomplex.o
 .debug_info    0x0000000000000000     0x1c04 build-MT7687Lite/py/objcomplex.o
 .debug_abbrev  0x0000000000000000      0x228 build-MT7687Lite/py/objcomplex.o
 .debug_aranges
                0x0000000000000000       0x18 build-MT7687Lite/py/objcomplex.o
 .debug_line    0x0000000000000000      0x2b0 build-MT7687Lite/py/objcomplex.o
 .debug_str     0x0000000000000000     0x1b58 build-MT7687Lite/py/objcomplex.o
 .comment       0x0000000000000000       0x80 build-MT7687Lite/py/objcomplex.o
 .ARM.attributes
                0x0000000000000000       0x31 build-MT7687Lite/py/objcomplex.o
 .text          0x0000000000000000        0x0 build-MT7687Lite/py/objdeque.o
 .data          0x0000000000000000        0x0 build-MT7687Lite/py/objdeque.o
 .bss           0x0000000000000000        0x0 build-MT7687Lite/py/objdeque.o
 .debug_info    0x0000000000000000      0x9ab build-MT7687Lite/py/objdeque.o
 .debug_abbrev  0x0000000000000000      0x192 build-MT7687Lite/py/objdeque.o
 .debug_aranges
                0x0000000000000000       0x18 build-MT7687Lite/py/objdeque.o
 .debug_line    0x0000000000000000      0x17a build-MT7687Lite/py/objdeque.o
 .debug_str     0x0000000000000000      0x70b build-MT7687Lite/py/objdeque.o
 .comment       0x0000000000000000       0x80 build-MT7687Lite/py/objdeque.o
 .ARM.attributes
                0x0000000000000000       0x31 build-MT7687Lite/py/objdeque.o
 .text          0x0000000000000000        0x0 build-MT7687Lite/py/objdict.o
 .data          0x0000000000000000        0x0 build-MT7687Lite/py/objdict.o
 .bss           0x0000000000000000        0x0 build-MT7687Lite/py/objdict.o
 .text          0x0000000000000000        0x0 build-MT7687Lite/py/objenumerate.o
 .data          0x0000000000000000        0x0 build-MT7687Lite/py/objenumerate.o
 .bss           0x0000000000000000        0x0 build-MT7687Lite/py/objenumerate.o
 .text          0x0000000000000000        0x0 build-MT7687Lite/py/objexcept.o
 .data          0x0000000000000000        0x0 build-MT7687Lite/py/objexcept.o
 .bss           0x0000000000000000        0x0 build-MT7687Lite/py/objexcept.o
 .text          0x0000000000000000        0x0 build-MT7687Lite/py/objfilter.o
 .data          0x0000000000000000        0x0 build-MT7687Lite/py/objfilter.o
 .bss           0x0000000000000000        0x0 build-MT7687Lite/py/objfilter.o
 .text          0x0000000000000000        0x0 build-MT7687Lite/py/objfloat.o
 .data          0x0000000000000000        0x0 build-MT7687Lite/py/objfloat.o
 .bss           0x0000000000000000        0x0 build-MT7687Lite/py/objfloat.o
 .debug_info    0x0000000000000000     0x1c04 build-MT7687Lite/py/objfloat.o
 .debug_abbrev  0x0000000000000000      0x228 build-MT7687Lite/py/objfloat.o
 .debug_aranges
                0x0000000000000000       0x18 build-MT7687Lite/py/objfloat.o
 .debug_line    0x0000000000000000      0x2b0 build-MT7687Lite/py/objfloat.o
 .debug_str     0x0000000000000000     0x1b56 build-MT7687Lite/py/objfloat.o
 .comment       0x0000000000000000       0x80 build-MT7687Lite/py/objfloat.o
 .ARM.attributes
                0x0000000000000000       0x31 build-MT7687Lite/py/objfloat.o
 .text          0x0000000000000000        0x0 build-MT7687Lite/py/objfun.o
 .data          0x0000000000000000        0x0 build-MT7687Lite/py/objfun.o
 .bss           0x0000000000000000        0x0 build-MT7687Lite/py/objfun.o
 .text          0x0000000000000000        0x0 build-MT7687Lite/py/objgenerator.o
 .data          0x0000000000000000        0x0 build-MT7687Lite/py/objgenerator.o
 .bss           0x0000000000000000        0x0 build-MT7687Lite/py/objgenerator.o
 .text          0x0000000000000000        0x0 build-MT7687Lite/py/objgetitemiter.o
 .data          0x0000000000000000        0x0 build-MT7687Lite/py/objgetitemiter.o
 .bss           0x0000000000000000        0x0 build-MT7687Lite/py/objgetitemiter.o
 .text          0x0000000000000000        0x0 build-MT7687Lite/py/objint.o
 .data          0x0000000000000000        0x0 build-MT7687Lite/py/objint.o
 .bss           0x0000000000000000        0x0 build-MT7687Lite/py/objint.o
 .text          0x0000000000000000        0x0 build-MT7687Lite/py/objint_longlong.o
 .data          0x0000000000000000        0x0 build-MT7687Lite/py/objint_longlong.o
 .bss           0x0000000000000000        0x0 build-MT7687Lite/py/objint_longlong.o
 .debug_info    0x0000000000000000     0x1cb2 build-MT7687Lite/py/objint_longlong.o
 .debug_abbrev  0x0000000000000000      0x23d build-MT7687Lite/py/objint_longlong.o
 .debug_aranges
                0x0000000000000000       0x18 build-MT7687Lite/py/objint_longlong.o
 .debug_line    0x0000000000000000      0x2c5 build-MT7687Lite/py/objint_longlong.o
 .debug_str     0x0000000000000000     0x1ba8 build-MT7687Lite/py/objint_longlong.o
 .comment       0x0000000000000000       0x80 build-MT7687Lite/py/objint_longlong.o
 .ARM.attributes
                0x0000000000000000       0x31 build-MT7687Lite/py/objint_longlong.o
 .text          0x0000000000000000        0x0 build-MT7687Lite/py/objint_mpz.o
 .data          0x0000000000000000        0x0 build-MT7687Lite/py/objint_mpz.o
 .bss           0x0000000000000000        0x0 build-MT7687Lite/py/objint_mpz.o
 .text          0x0000000000000000        0x0 build-MT7687Lite/py/objlist.o
 .data          0x0000000000000000        0x0 build-MT7687Lite/py/objlist.o
 .bss           0x0000000000000000        0x0 build-MT7687Lite/py/objlist.o
 .text          0x0000000000000000        0x0 build-MT7687Lite/py/objmap.o
 .data          0x0000000000000000        0x0 build-MT7687Lite/py/objmap.o
 .bss           0x0000000000000000        0x0 build-MT7687Lite/py/objmap.o
 .text          0x0000000000000000        0x0 build-MT7687Lite/py/objmodule.o
 .data          0x0000000000000000        0x0 build-MT7687Lite/py/objmodule.o
 .bss           0x0000000000000000        0x0 build-MT7687Lite/py/objmodule.o
 .text.mp_module_register
                0x0000000000000000       0x1c build-MT7687Lite/py/objmodule.o
 .text          0x0000000000000000        0x0 build-MT7687Lite/py/objobject.o
 .data          0x0000000000000000        0x0 build-MT7687Lite/py/objobject.o
 .bss           0x0000000000000000        0x0 build-MT7687Lite/py/objobject.o
 .text          0x0000000000000000        0x0 build-MT7687Lite/py/objpolyiter.o
 .data          0x0000000000000000        0x0 build-MT7687Lite/py/objpolyiter.o
 .bss           0x0000000000000000        0x0 build-MT7687Lite/py/objpolyiter.o
 .text          0x0000000000000000        0x0 build-MT7687Lite/py/objproperty.o
 .data          0x0000000000000000        0x0 build-MT7687Lite/py/objproperty.o
 .bss           0x0000000000000000        0x0 build-MT7687Lite/py/objproperty.o
 .text          0x0000000000000000        0x0 build-MT7687Lite/py/objnone.o
 .data          0x0000000000000000        0x0 build-MT7687Lite/py/objnone.o
 .bss           0x0000000000000000        0x0 build-MT7687Lite/py/objnone.o
 .text          0x0000000000000000        0x0 build-MT7687Lite/py/objnamedtuple.o
 .data          0x0000000000000000        0x0 build-MT7687Lite/py/objnamedtuple.o
 .bss           0x0000000000000000        0x0 build-MT7687Lite/py/objnamedtuple.o
 .text          0x0000000000000000        0x0 build-MT7687Lite/py/objrange.o
 .data          0x0000000000000000        0x0 build-MT7687Lite/py/objrange.o
 .bss           0x0000000000000000        0x0 build-MT7687Lite/py/objrange.o
 .text          0x0000000000000000        0x0 build-MT7687Lite/py/objreversed.o
 .data          0x0000000000000000        0x0 build-MT7687Lite/py/objreversed.o
 .bss           0x0000000000000000        0x0 build-MT7687Lite/py/objreversed.o
 .text          0x0000000000000000        0x0 build-MT7687Lite/py/objset.o
 .data          0x0000000000000000        0x0 build-MT7687Lite/py/objset.o
 .bss           0x0000000000000000        0x0 build-MT7687Lite/py/objset.o
 .text          0x0000000000000000        0x0 build-MT7687Lite/py/objsingleton.o
 .data          0x0000000000000000        0x0 build-MT7687Lite/py/objsingleton.o
 .bss           0x0000000000000000        0x0 build-MT7687Lite/py/objsingleton.o
 .text          0x0000000000000000        0x0 build-MT7687Lite/py/objslice.o
 .data          0x0000000000000000        0x0 build-MT7687Lite/py/objslice.o
 .bss           0x0000000000000000        0x0 build-MT7687Lite/py/objslice.o
 .text          0x0000000000000000        0x0 build-MT7687Lite/py/objstr.o
 .data          0x0000000000000000        0x0 build-MT7687Lite/py/objstr.o
 .bss           0x0000000000000000        0x0 build-MT7687Lite/py/objstr.o
 .text.mp_obj_str_intern
                0x0000000000000000       0x26 build-MT7687Lite/py/objstr.o
 .text          0x0000000000000000        0x0 build-MT7687Lite/py/objstrunicode.o
 .data          0x0000000000000000        0x0 build-MT7687Lite/py/objstrunicode.o
 .bss           0x0000000000000000        0x0 build-MT7687Lite/py/objstrunicode.o
 .text          0x0000000000000000        0x0 build-MT7687Lite/py/objstringio.o
 .data          0x0000000000000000        0x0 build-MT7687Lite/py/objstringio.o
 .bss           0x0000000000000000        0x0 build-MT7687Lite/py/objstringio.o
 .text          0x0000000000000000        0x0 build-MT7687Lite/py/objtuple.o
 .data          0x0000000000000000        0x0 build-MT7687Lite/py/objtuple.o
 .bss           0x0000000000000000        0x0 build-MT7687Lite/py/objtuple.o
 .text          0x0000000000000000        0x0 build-MT7687Lite/py/objtype.o
 .data          0x0000000000000000        0x0 build-MT7687Lite/py/objtype.o
 .bss           0x0000000000000000        0x0 build-MT7687Lite/py/objtype.o
 .text          0x0000000000000000        0x0 build-MT7687Lite/py/objzip.o
 .data          0x0000000000000000        0x0 build-MT7687Lite/py/objzip.o
 .bss           0x0000000000000000        0x0 build-MT7687Lite/py/objzip.o
 .text          0x0000000000000000        0x0 build-MT7687Lite/py/opmethods.o
 .data          0x0000000000000000        0x0 build-MT7687Lite/py/opmethods.o
 .bss           0x0000000000000000        0x0 build-MT7687Lite/py/opmethods.o
 .text          0x0000000000000000        0x0 build-MT7687Lite/py/sequence.o
 .data          0x0000000000000000        0x0 build-MT7687Lite/py/sequence.o
 .bss           0x0000000000000000        0x0 build-MT7687Lite/py/sequence.o
 .text          0x0000000000000000        0x0 build-MT7687Lite/py/stream.o
 .data          0x0000000000000000        0x0 build-MT7687Lite/py/stream.o
 .bss           0x0000000000000000        0x0 build-MT7687Lite/py/stream.o
 .text.stream_ioctl
                0x0000000000000000       0x50 build-MT7687Lite/py/stream.o
 .text.stream_read1
                0x0000000000000000        0x6 build-MT7687Lite/py/stream.o
 .text.stream_write1_method
                0x0000000000000000       0x1e build-MT7687Lite/py/stream.o
 .rodata.mp_stream_ioctl_obj
                0x0000000000000000        0xc build-MT7687Lite/py/stream.o
 .rodata.mp_stream_read1_obj
                0x0000000000000000        0xc build-MT7687Lite/py/stream.o
 .rodata.mp_stream_write1_obj
                0x0000000000000000        0x8 build-MT7687Lite/py/stream.o
 .text          0x0000000000000000        0x0 build-MT7687Lite/py/binary.o
 .data          0x0000000000000000        0x0 build-MT7687Lite/py/binary.o
 .bss           0x0000000000000000        0x0 build-MT7687Lite/py/binary.o
 .text          0x0000000000000000        0x0 build-MT7687Lite/py/builtinimport.o
 .data          0x0000000000000000        0x0 build-MT7687Lite/py/builtinimport.o
 .bss           0x0000000000000000        0x0 build-MT7687Lite/py/builtinimport.o
 .text          0x0000000000000000        0x0 build-MT7687Lite/py/builtinevex.o
 .data          0x0000000000000000        0x0 build-MT7687Lite/py/builtinevex.o
 .bss           0x0000000000000000        0x0 build-MT7687Lite/py/builtinevex.o
 .text          0x0000000000000000        0x0 build-MT7687Lite/py/builtinhelp.o
 .data          0x0000000000000000        0x0 build-MT7687Lite/py/builtinhelp.o
 .bss           0x0000000000000000        0x0 build-MT7687Lite/py/builtinhelp.o
 .text          0x0000000000000000        0x0 build-MT7687Lite/py/modarray.o
 .data          0x0000000000000000        0x0 build-MT7687Lite/py/modarray.o
 .bss           0x0000000000000000        0x0 build-MT7687Lite/py/modarray.o
 .text          0x0000000000000000        0x0 build-MT7687Lite/py/modbuiltins.o
 .data          0x0000000000000000        0x0 build-MT7687Lite/py/modbuiltins.o
 .bss           0x0000000000000000        0x0 build-MT7687Lite/py/modbuiltins.o
 .text          0x0000000000000000        0x0 build-MT7687Lite/py/modcollections.o
 .data          0x0000000000000000        0x0 build-MT7687Lite/py/modcollections.o
 .bss           0x0000000000000000        0x0 build-MT7687Lite/py/modcollections.o
 .text          0x0000000000000000        0x0 build-MT7687Lite/py/modgc.o
 .data          0x0000000000000000        0x0 build-MT7687Lite/py/modgc.o
 .bss           0x0000000000000000        0x0 build-MT7687Lite/py/modgc.o
 .text          0x0000000000000000        0x0 build-MT7687Lite/py/modio.o
 .data          0x0000000000000000        0x0 build-MT7687Lite/py/modio.o
 .bss           0x0000000000000000        0x0 build-MT7687Lite/py/modio.o
 .text          0x0000000000000000        0x0 build-MT7687Lite/py/modmath.o
 .data          0x0000000000000000        0x0 build-MT7687Lite/py/modmath.o
 .bss           0x0000000000000000        0x0 build-MT7687Lite/py/modmath.o
 .debug_info    0x0000000000000000     0x2039 build-MT7687Lite/py/modmath.o
 .debug_abbrev  0x0000000000000000      0x228 build-MT7687Lite/py/modmath.o
 .debug_aranges
                0x0000000000000000       0x18 build-MT7687Lite/py/modmath.o
 .debug_line    0x0000000000000000      0x280 build-MT7687Lite/py/modmath.o
 .debug_str     0x0000000000000000     0x2191 build-MT7687Lite/py/modmath.o
 .comment       0x0000000000000000       0x80 build-MT7687Lite/py/modmath.o
 .ARM.attributes
                0x0000000000000000       0x31 build-MT7687Lite/py/modmath.o
 .text          0x0000000000000000        0x0 build-MT7687Lite/py/modcmath.o
 .data          0x0000000000000000        0x0 build-MT7687Lite/py/modcmath.o
 .bss           0x0000000000000000        0x0 build-MT7687Lite/py/modcmath.o
 .debug_info    0x0000000000000000     0x1985 build-MT7687Lite/py/modcmath.o
 .debug_abbrev  0x0000000000000000      0x1fd build-MT7687Lite/py/modcmath.o
 .debug_aranges
                0x0000000000000000       0x18 build-MT7687Lite/py/modcmath.o
 .debug_line    0x0000000000000000      0x1bc build-MT7687Lite/py/modcmath.o
 .debug_str     0x0000000000000000     0x1ba8 build-MT7687Lite/py/modcmath.o
 .comment       0x0000000000000000       0x80 build-MT7687Lite/py/modcmath.o
 .ARM.attributes
                0x0000000000000000       0x31 build-MT7687Lite/py/modcmath.o
 .text          0x0000000000000000        0x0 build-MT7687Lite/py/modmicropython.o
 .data          0x0000000000000000        0x0 build-MT7687Lite/py/modmicropython.o
 .bss           0x0000000000000000        0x0 build-MT7687Lite/py/modmicropython.o
 .text          0x0000000000000000        0x0 build-MT7687Lite/py/modstruct.o
 .data          0x0000000000000000        0x0 build-MT7687Lite/py/modstruct.o
 .bss           0x0000000000000000        0x0 build-MT7687Lite/py/modstruct.o
 .text          0x0000000000000000        0x0 build-MT7687Lite/py/modsys.o
 .data          0x0000000000000000        0x0 build-MT7687Lite/py/modsys.o
 .bss           0x0000000000000000        0x0 build-MT7687Lite/py/modsys.o
 .text          0x0000000000000000        0x0 build-MT7687Lite/py/moduerrno.o
 .data          0x0000000000000000        0x0 build-MT7687Lite/py/moduerrno.o
 .bss           0x0000000000000000        0x0 build-MT7687Lite/py/moduerrno.o
 .text          0x0000000000000000        0x0 build-MT7687Lite/py/modthread.o
 .data          0x0000000000000000        0x0 build-MT7687Lite/py/modthread.o
 .bss           0x0000000000000000        0x0 build-MT7687Lite/py/modthread.o
 .text          0x0000000000000000        0x0 build-MT7687Lite/py/vm.o
 .data          0x0000000000000000        0x0 build-MT7687Lite/py/vm.o
 .bss           0x0000000000000000        0x0 build-MT7687Lite/py/vm.o
 .text          0x0000000000000000        0x0 build-MT7687Lite/py/bc.o
 .data          0x0000000000000000        0x0 build-MT7687Lite/py/bc.o
 .bss           0x0000000000000000        0x0 build-MT7687Lite/py/bc.o
 .text          0x0000000000000000        0x0 build-MT7687Lite/py/showbc.o
 .data          0x0000000000000000        0x0 build-MT7687Lite/py/showbc.o
 .bss           0x0000000000000000        0x0 build-MT7687Lite/py/showbc.o
 .debug_info    0x0000000000000000     0x1bf9 build-MT7687Lite/py/showbc.o
 .debug_abbrev  0x0000000000000000      0x228 build-MT7687Lite/py/showbc.o
 .debug_aranges
                0x0000000000000000       0x18 build-MT7687Lite/py/showbc.o
 .debug_line    0x0000000000000000      0x273 build-MT7687Lite/py/showbc.o
 .debug_str     0x0000000000000000     0x1b4a build-MT7687Lite/py/showbc.o
 .comment       0x0000000000000000       0x80 build-MT7687Lite/py/showbc.o
 .ARM.attributes
                0x0000000000000000       0x31 build-MT7687Lite/py/showbc.o
 .text          0x0000000000000000        0x0 build-MT7687Lite/py/repl.o
 .data          0x0000000000000000        0x0 build-MT7687Lite/py/repl.o
 .bss           0x0000000000000000        0x0 build-MT7687Lite/py/repl.o
 .text          0x0000000000000000        0x0 build-MT7687Lite/py/smallint.o
 .data          0x0000000000000000        0x0 build-MT7687Lite/py/smallint.o
 .bss           0x0000000000000000        0x0 build-MT7687Lite/py/smallint.o
 .text          0x0000000000000000        0x0 build-MT7687Lite/py/frozenmod.o
 .data          0x0000000000000000        0x0 build-MT7687Lite/py/frozenmod.o
 .bss           0x0000000000000000        0x0 build-MT7687Lite/py/frozenmod.o
 .debug_info    0x0000000000000000     0x1545 build-MT7687Lite/py/frozenmod.o
 .debug_abbrev  0x0000000000000000      0x1f8 build-MT7687Lite/py/frozenmod.o
 .debug_aranges
                0x0000000000000000       0x18 build-MT7687Lite/py/frozenmod.o
 .debug_line    0x0000000000000000      0x1af build-MT7687Lite/py/frozenmod.o
 .debug_str     0x0000000000000000     0x1563 build-MT7687Lite/py/frozenmod.o
 .comment       0x0000000000000000       0x80 build-MT7687Lite/py/frozenmod.o
 .ARM.attributes
                0x0000000000000000       0x31 build-MT7687Lite/py/frozenmod.o
 .text          0x0000000000000000        0x0 build-MT7687Lite/extmod/moductypes.o
 .data          0x0000000000000000        0x0 build-MT7687Lite/extmod/moductypes.o
 .bss           0x0000000000000000        0x0 build-MT7687Lite/extmod/moductypes.o
 .debug_info    0x0000000000000000     0x1bf9 build-MT7687Lite/extmod/moductypes.o
 .debug_abbrev  0x0000000000000000      0x228 build-MT7687Lite/extmod/moductypes.o
 .debug_aranges
                0x0000000000000000       0x18 build-MT7687Lite/extmod/moductypes.o
 .debug_line    0x0000000000000000      0x273 build-MT7687Lite/extmod/moductypes.o
 .debug_str     0x0000000000000000     0x1b52 build-MT7687Lite/extmod/moductypes.o
 .comment       0x0000000000000000       0x80 build-MT7687Lite/extmod/moductypes.o
 .ARM.attributes
                0x0000000000000000       0x31 build-MT7687Lite/extmod/moductypes.o
 .text          0x0000000000000000        0x0 build-MT7687Lite/extmod/modujson.o
 .data          0x0000000000000000        0x0 build-MT7687Lite/extmod/modujson.o
 .bss           0x0000000000000000        0x0 build-MT7687Lite/extmod/modujson.o
 .text          0x0000000000000000        0x0 build-MT7687Lite/extmod/modure.o
 .data          0x0000000000000000        0x0 build-MT7687Lite/extmod/modure.o
 .bss           0x0000000000000000        0x0 build-MT7687Lite/extmod/modure.o
 .text          0x0000000000000000        0x0 build-MT7687Lite/extmod/moduzlib.o
 .data          0x0000000000000000        0x0 build-MT7687Lite/extmod/moduzlib.o
 .bss           0x0000000000000000        0x0 build-MT7687Lite/extmod/moduzlib.o
 .debug_info    0x0000000000000000     0x1d5e build-MT7687Lite/extmod/moduzlib.o
 .debug_abbrev  0x0000000000000000      0x228 build-MT7687Lite/extmod/moduzlib.o
 .debug_aranges
                0x0000000000000000       0x18 build-MT7687Lite/extmod/moduzlib.o
 .debug_line    0x0000000000000000      0x27f build-MT7687Lite/extmod/moduzlib.o
 .debug_str     0x0000000000000000     0x1cc6 build-MT7687Lite/extmod/moduzlib.o
 .comment       0x0000000000000000       0x80 build-MT7687Lite/extmod/moduzlib.o
 .ARM.attributes
                0x0000000000000000       0x31 build-MT7687Lite/extmod/moduzlib.o
 .text          0x0000000000000000        0x0 build-MT7687Lite/extmod/moduheapq.o
 .data          0x0000000000000000        0x0 build-MT7687Lite/extmod/moduheapq.o
 .bss           0x0000000000000000        0x0 build-MT7687Lite/extmod/moduheapq.o
 .debug_info    0x0000000000000000     0x1bf9 build-MT7687Lite/extmod/moduheapq.o
 .debug_abbrev  0x0000000000000000      0x228 build-MT7687Lite/extmod/moduheapq.o
 .debug_aranges
                0x0000000000000000       0x18 build-MT7687Lite/extmod/moduheapq.o
 .debug_line    0x0000000000000000      0x273 build-MT7687Lite/extmod/moduheapq.o
 .debug_str     0x0000000000000000     0x1b51 build-MT7687Lite/extmod/moduheapq.o
 .comment       0x0000000000000000       0x80 build-MT7687Lite/extmod/moduheapq.o
 .ARM.attributes
                0x0000000000000000       0x31 build-MT7687Lite/extmod/moduheapq.o
 .text          0x0000000000000000        0x0 build-MT7687Lite/extmod/modutimeq.o
 .data          0x0000000000000000        0x0 build-MT7687Lite/extmod/modutimeq.o
 .bss           0x0000000000000000        0x0 build-MT7687Lite/extmod/modutimeq.o
 .debug_info    0x0000000000000000     0x1bf9 build-MT7687Lite/extmod/modutimeq.o
 .debug_abbrev  0x0000000000000000      0x228 build-MT7687Lite/extmod/modutimeq.o
 .debug_aranges
                0x0000000000000000       0x18 build-MT7687Lite/extmod/modutimeq.o
 .debug_line    0x0000000000000000      0x273 build-MT7687Lite/extmod/modutimeq.o
 .debug_str     0x0000000000000000     0x1b51 build-MT7687Lite/extmod/modutimeq.o
 .comment       0x0000000000000000       0x80 build-MT7687Lite/extmod/modutimeq.o
 .ARM.attributes
                0x0000000000000000       0x31 build-MT7687Lite/extmod/modutimeq.o
 .text          0x0000000000000000        0x0 build-MT7687Lite/extmod/moduhashlib.o
 .data          0x0000000000000000        0x0 build-MT7687Lite/extmod/moduhashlib.o
 .bss           0x0000000000000000        0x0 build-MT7687Lite/extmod/moduhashlib.o
 .debug_info    0x0000000000000000     0x1bf9 build-MT7687Lite/extmod/moduhashlib.o
 .debug_abbrev  0x0000000000000000      0x228 build-MT7687Lite/extmod/moduhashlib.o
 .debug_aranges
                0x0000000000000000       0x18 build-MT7687Lite/extmod/moduhashlib.o
 .debug_line    0x0000000000000000      0x273 build-MT7687Lite/extmod/moduhashlib.o
 .debug_str     0x0000000000000000     0x1b53 build-MT7687Lite/extmod/moduhashlib.o
 .comment       0x0000000000000000       0x80 build-MT7687Lite/extmod/moduhashlib.o
 .ARM.attributes
                0x0000000000000000       0x31 build-MT7687Lite/extmod/moduhashlib.o
 .text          0x0000000000000000        0x0 build-MT7687Lite/extmod/moducryptolib.o
 .data          0x0000000000000000        0x0 build-MT7687Lite/extmod/moducryptolib.o
 .bss           0x0000000000000000        0x0 build-MT7687Lite/extmod/moducryptolib.o
 .debug_info    0x0000000000000000      0x963 build-MT7687Lite/extmod/moducryptolib.o
 .debug_abbrev  0x0000000000000000      0x192 build-MT7687Lite/extmod/moducryptolib.o
 .debug_aranges
                0x0000000000000000       0x18 build-MT7687Lite/extmod/moducryptolib.o
 .debug_line    0x0000000000000000      0x16e build-MT7687Lite/extmod/moducryptolib.o
 .debug_str     0x0000000000000000      0x6e7 build-MT7687Lite/extmod/moducryptolib.o
 .comment       0x0000000000000000       0x80 build-MT7687Lite/extmod/moducryptolib.o
 .ARM.attributes
                0x0000000000000000       0x31 build-MT7687Lite/extmod/moducryptolib.o
 .text          0x0000000000000000        0x0 build-MT7687Lite/extmod/modubinascii.o
 .data          0x0000000000000000        0x0 build-MT7687Lite/extmod/modubinascii.o
 .bss           0x0000000000000000        0x0 build-MT7687Lite/extmod/modubinascii.o
 .text          0x0000000000000000        0x0 build-MT7687Lite/extmod/virtpin.o
 .data          0x0000000000000000        0x0 build-MT7687Lite/extmod/virtpin.o
 .bss           0x0000000000000000        0x0 build-MT7687Lite/extmod/virtpin.o
 .text.mp_virtual_pin_read
                0x0000000000000000       0x14 build-MT7687Lite/extmod/virtpin.o
 .text.mp_virtual_pin_write
                0x0000000000000000       0x14 build-MT7687Lite/extmod/virtpin.o
 .debug_info    0x0000000000000000     0x1688 build-MT7687Lite/extmod/virtpin.o
 .debug_abbrev  0x0000000000000000      0x284 build-MT7687Lite/extmod/virtpin.o
 .debug_loc     0x0000000000000000       0xde build-MT7687Lite/extmod/virtpin.o
 .debug_aranges
                0x0000000000000000       0x28 build-MT7687Lite/extmod/virtpin.o
 .debug_ranges  0x0000000000000000       0x18 build-MT7687Lite/extmod/virtpin.o
 .debug_line    0x0000000000000000      0x200 build-MT7687Lite/extmod/virtpin.o
 .debug_str     0x0000000000000000     0x15c7 build-MT7687Lite/extmod/virtpin.o
 .comment       0x0000000000000000       0x80 build-MT7687Lite/extmod/virtpin.o
 .debug_frame   0x0000000000000000       0x48 build-MT7687Lite/extmod/virtpin.o
 .ARM.attributes
                0x0000000000000000       0x31 build-MT7687Lite/extmod/virtpin.o
 .text          0x0000000000000000        0x0 build-MT7687Lite/extmod/machine_mem.o
 .data          0x0000000000000000        0x0 build-MT7687Lite/extmod/machine_mem.o
 .bss           0x0000000000000000        0x0 build-MT7687Lite/extmod/machine_mem.o
 .debug_info    0x0000000000000000     0x1c5a build-MT7687Lite/extmod/machine_mem.o
 .debug_abbrev  0x0000000000000000      0x228 build-MT7687Lite/extmod/machine_mem.o
 .debug_aranges
                0x0000000000000000       0x18 build-MT7687Lite/extmod/machine_mem.o
 .debug_line    0x0000000000000000      0x291 build-MT7687Lite/extmod/machine_mem.o
 .debug_str     0x0000000000000000     0x1bc8 build-MT7687Lite/extmod/machine_mem.o
 .comment       0x0000000000000000       0x80 build-MT7687Lite/extmod/machine_mem.o
 .ARM.attributes
                0x0000000000000000       0x31 build-MT7687Lite/extmod/machine_mem.o
 .text          0x0000000000000000        0x0 build-MT7687Lite/extmod/machine_pinbase.o
 .data          0x0000000000000000        0x0 build-MT7687Lite/extmod/machine_pinbase.o
 .bss           0x0000000000000000        0x0 build-MT7687Lite/extmod/machine_pinbase.o
 .debug_info    0x0000000000000000      0x963 build-MT7687Lite/extmod/machine_pinbase.o
 .debug_abbrev  0x0000000000000000      0x192 build-MT7687Lite/extmod/machine_pinbase.o
 .debug_aranges
                0x0000000000000000       0x18 build-MT7687Lite/extmod/machine_pinbase.o
 .debug_line    0x0000000000000000      0x16e build-MT7687Lite/extmod/machine_pinbase.o
 .debug_str     0x0000000000000000      0x6e9 build-MT7687Lite/extmod/machine_pinbase.o
 .comment       0x0000000000000000       0x80 build-MT7687Lite/extmod/machine_pinbase.o
 .ARM.attributes
                0x0000000000000000       0x31 build-MT7687Lite/extmod/machine_pinbase.o
 .text          0x0000000000000000        0x0 build-MT7687Lite/extmod/machine_signal.o
 .data          0x0000000000000000        0x0 build-MT7687Lite/extmod/machine_signal.o
 .bss           0x0000000000000000        0x0 build-MT7687Lite/extmod/machine_signal.o
 .debug_info    0x0000000000000000      0x963 build-MT7687Lite/extmod/machine_signal.o
 .debug_abbrev  0x0000000000000000      0x192 build-MT7687Lite/extmod/machine_signal.o
 .debug_aranges
                0x0000000000000000       0x18 build-MT7687Lite/extmod/machine_signal.o
 .debug_line    0x0000000000000000      0x16e build-MT7687Lite/extmod/machine_signal.o
 .debug_str     0x0000000000000000      0x6e8 build-MT7687Lite/extmod/machine_signal.o
 .comment       0x0000000000000000       0x80 build-MT7687Lite/extmod/machine_signal.o
 .ARM.attributes
                0x0000000000000000       0x31 build-MT7687Lite/extmod/machine_signal.o
 .text          0x0000000000000000        0x0 build-MT7687Lite/extmod/machine_pulse.o
 .data          0x0000000000000000        0x0 build-MT7687Lite/extmod/machine_pulse.o
 .bss           0x0000000000000000        0x0 build-MT7687Lite/extmod/machine_pulse.o
 .debug_info    0x0000000000000000     0x1ce5 build-MT7687Lite/extmod/machine_pulse.o
 .debug_abbrev  0x0000000000000000      0x228 build-MT7687Lite/extmod/machine_pulse.o
 .debug_aranges
                0x0000000000000000       0x18 build-MT7687Lite/extmod/machine_pulse.o
 .debug_line    0x0000000000000000      0x293 build-MT7687Lite/extmod/machine_pulse.o
 .debug_str     0x0000000000000000     0x1bd7 build-MT7687Lite/extmod/machine_pulse.o
 .comment       0x0000000000000000       0x80 build-MT7687Lite/extmod/machine_pulse.o
 .ARM.attributes
                0x0000000000000000       0x31 build-MT7687Lite/extmod/machine_pulse.o
 .text          0x0000000000000000        0x0 build-MT7687Lite/extmod/machine_i2c.o
 .data          0x0000000000000000        0x0 build-MT7687Lite/extmod/machine_i2c.o
 .bss           0x0000000000000000        0x0 build-MT7687Lite/extmod/machine_i2c.o
 .debug_info    0x0000000000000000     0x1c14 build-MT7687Lite/extmod/machine_i2c.o
 .debug_abbrev  0x0000000000000000      0x228 build-MT7687Lite/extmod/machine_i2c.o
 .debug_aranges
                0x0000000000000000       0x18 build-MT7687Lite/extmod/machine_i2c.o
 .debug_line    0x0000000000000000      0x291 build-MT7687Lite/extmod/machine_i2c.o
 .debug_str     0x0000000000000000     0x1b84 build-MT7687Lite/extmod/machine_i2c.o
 .comment       0x0000000000000000       0x80 build-MT7687Lite/extmod/machine_i2c.o
 .ARM.attributes
                0x0000000000000000       0x31 build-MT7687Lite/extmod/machine_i2c.o
 .text          0x0000000000000000        0x0 build-MT7687Lite/extmod/machine_spi.o
 .data          0x0000000000000000        0x0 build-MT7687Lite/extmod/machine_spi.o
 .bss           0x0000000000000000        0x0 build-MT7687Lite/extmod/machine_spi.o
 .debug_info    0x0000000000000000     0x1e4f build-MT7687Lite/extmod/machine_spi.o
 .debug_abbrev  0x0000000000000000      0x228 build-MT7687Lite/extmod/machine_spi.o
 .debug_aranges
                0x0000000000000000       0x18 build-MT7687Lite/extmod/machine_spi.o
 .debug_line    0x0000000000000000      0x2ac build-MT7687Lite/extmod/machine_spi.o
 .debug_str     0x0000000000000000     0x1ce7 build-MT7687Lite/extmod/machine_spi.o
 .comment       0x0000000000000000       0x80 build-MT7687Lite/extmod/machine_spi.o
 .ARM.attributes
                0x0000000000000000       0x31 build-MT7687Lite/extmod/machine_spi.o
 .text          0x0000000000000000        0x0 build-MT7687Lite/extmod/modussl_axtls.o
 .data          0x0000000000000000        0x0 build-MT7687Lite/extmod/modussl_axtls.o
 .bss           0x0000000000000000        0x0 build-MT7687Lite/extmod/modussl_axtls.o
 .debug_info    0x0000000000000000     0x1d5e build-MT7687Lite/extmod/modussl_axtls.o
 .debug_abbrev  0x0000000000000000      0x228 build-MT7687Lite/extmod/modussl_axtls.o
 .debug_aranges
                0x0000000000000000       0x18 build-MT7687Lite/extmod/modussl_axtls.o
 .debug_line    0x0000000000000000      0x27f build-MT7687Lite/extmod/modussl_axtls.o
 .debug_str     0x0000000000000000     0x1ccb build-MT7687Lite/extmod/modussl_axtls.o
 .comment       0x0000000000000000       0x80 build-MT7687Lite/extmod/modussl_axtls.o
 .ARM.attributes
                0x0000000000000000       0x31 build-MT7687Lite/extmod/modussl_axtls.o
 .text          0x0000000000000000        0x0 build-MT7687Lite/extmod/modussl_mbedtls.o
 .data          0x0000000000000000        0x0 build-MT7687Lite/extmod/modussl_mbedtls.o
 .bss           0x0000000000000000        0x0 build-MT7687Lite/extmod/modussl_mbedtls.o
 .debug_info    0x0000000000000000      0x963 build-MT7687Lite/extmod/modussl_mbedtls.o
 .debug_abbrev  0x0000000000000000      0x192 build-MT7687Lite/extmod/modussl_mbedtls.o
 .debug_aranges
                0x0000000000000000       0x18 build-MT7687Lite/extmod/modussl_mbedtls.o
 .debug_line    0x0000000000000000      0x16e build-MT7687Lite/extmod/modussl_mbedtls.o
 .debug_str     0x0000000000000000      0x6e9 build-MT7687Lite/extmod/modussl_mbedtls.o
 .comment       0x0000000000000000       0x80 build-MT7687Lite/extmod/modussl_mbedtls.o
 .ARM.attributes
                0x0000000000000000       0x31 build-MT7687Lite/extmod/modussl_mbedtls.o
 .text          0x0000000000000000        0x0 build-MT7687Lite/extmod/modurandom.o
 .data          0x0000000000000000        0x0 build-MT7687Lite/extmod/modurandom.o
 .bss           0x0000000000000000        0x0 build-MT7687Lite/extmod/modurandom.o
 .debug_info    0x0000000000000000     0x1bf9 build-MT7687Lite/extmod/modurandom.o
 .debug_abbrev  0x0000000000000000      0x228 build-MT7687Lite/extmod/modurandom.o
 .debug_aranges
                0x0000000000000000       0x18 build-MT7687Lite/extmod/modurandom.o
 .debug_line    0x0000000000000000      0x273 build-MT7687Lite/extmod/modurandom.o
 .debug_str     0x0000000000000000     0x1b52 build-MT7687Lite/extmod/modurandom.o
 .comment       0x0000000000000000       0x80 build-MT7687Lite/extmod/modurandom.o
 .ARM.attributes
                0x0000000000000000       0x31 build-MT7687Lite/extmod/modurandom.o
 .text          0x0000000000000000        0x0 build-MT7687Lite/extmod/moduselect.o
 .data          0x0000000000000000        0x0 build-MT7687Lite/extmod/moduselect.o
 .bss           0x0000000000000000        0x0 build-MT7687Lite/extmod/moduselect.o
 .text          0x0000000000000000        0x0 build-MT7687Lite/extmod/modwebsocket.o
 .data          0x0000000000000000        0x0 build-MT7687Lite/extmod/modwebsocket.o
 .bss           0x0000000000000000        0x0 build-MT7687Lite/extmod/modwebsocket.o
 .debug_info    0x0000000000000000     0x1d5e build-MT7687Lite/extmod/modwebsocket.o
 .debug_abbrev  0x0000000000000000      0x228 build-MT7687Lite/extmod/modwebsocket.o
 .debug_aranges
                0x0000000000000000       0x18 build-MT7687Lite/extmod/modwebsocket.o
 .debug_line    0x0000000000000000      0x27f build-MT7687Lite/extmod/modwebsocket.o
 .debug_str     0x0000000000000000     0x1cca build-MT7687Lite/extmod/modwebsocket.o
 .comment       0x0000000000000000       0x80 build-MT7687Lite/extmod/modwebsocket.o
 .ARM.attributes
                0x0000000000000000       0x31 build-MT7687Lite/extmod/modwebsocket.o
 .text          0x0000000000000000        0x0 build-MT7687Lite/extmod/modwebrepl.o
 .data          0x0000000000000000        0x0 build-MT7687Lite/extmod/modwebrepl.o
 .bss           0x0000000000000000        0x0 build-MT7687Lite/extmod/modwebrepl.o
 .debug_info    0x0000000000000000     0x20bd build-MT7687Lite/extmod/modwebrepl.o
 .debug_abbrev  0x0000000000000000      0x228 build-MT7687Lite/extmod/modwebrepl.o
 .debug_aranges
                0x0000000000000000       0x18 build-MT7687Lite/extmod/modwebrepl.o
 .debug_line    0x0000000000000000      0x28c build-MT7687Lite/extmod/modwebrepl.o
 .debug_str     0x0000000000000000     0x22a6 build-MT7687Lite/extmod/modwebrepl.o
 .comment       0x0000000000000000       0x80 build-MT7687Lite/extmod/modwebrepl.o
 .ARM.attributes
                0x0000000000000000       0x31 build-MT7687Lite/extmod/modwebrepl.o
 .text          0x0000000000000000        0x0 build-MT7687Lite/extmod/modframebuf.o
 .data          0x0000000000000000        0x0 build-MT7687Lite/extmod/modframebuf.o
 .bss           0x0000000000000000        0x0 build-MT7687Lite/extmod/modframebuf.o
 .debug_info    0x0000000000000000     0x1bf9 build-MT7687Lite/extmod/modframebuf.o
 .debug_abbrev  0x0000000000000000      0x228 build-MT7687Lite/extmod/modframebuf.o
 .debug_aranges
                0x0000000000000000       0x18 build-MT7687Lite/extmod/modframebuf.o
 .debug_line    0x0000000000000000      0x273 build-MT7687Lite/extmod/modframebuf.o
 .debug_str     0x0000000000000000     0x1b53 build-MT7687Lite/extmod/modframebuf.o
 .comment       0x0000000000000000       0x80 build-MT7687Lite/extmod/modframebuf.o
 .ARM.attributes
                0x0000000000000000       0x31 build-MT7687Lite/extmod/modframebuf.o
 .text          0x0000000000000000        0x0 build-MT7687Lite/extmod/vfs.o
 .data          0x0000000000000000        0x0 build-MT7687Lite/extmod/vfs.o
 .bss           0x0000000000000000        0x0 build-MT7687Lite/extmod/vfs.o
 .text.mp_vfs_statvfs
                0x0000000000000000       0x58 build-MT7687Lite/extmod/vfs.o
 .rodata.mp_vfs_statvfs_obj
                0x0000000000000000        0x8 build-MT7687Lite/extmod/vfs.o
 .text          0x0000000000000000        0x0 build-MT7687Lite/extmod/vfs_reader.o
 .data          0x0000000000000000        0x0 build-MT7687Lite/extmod/vfs_reader.o
 .bss           0x0000000000000000        0x0 build-MT7687Lite/extmod/vfs_reader.o
 .text          0x0000000000000000        0x0 build-MT7687Lite/extmod/vfs_posix.o
 .data          0x0000000000000000        0x0 build-MT7687Lite/extmod/vfs_posix.o
 .bss           0x0000000000000000        0x0 build-MT7687Lite/extmod/vfs_posix.o
 .debug_info    0x0000000000000000     0x1dc2 build-MT7687Lite/extmod/vfs_posix.o
 .debug_abbrev  0x0000000000000000      0x228 build-MT7687Lite/extmod/vfs_posix.o
 .debug_aranges
                0x0000000000000000       0x18 build-MT7687Lite/extmod/vfs_posix.o
 .debug_line    0x0000000000000000      0x298 build-MT7687Lite/extmod/vfs_posix.o
 .debug_str     0x0000000000000000     0x1ce8 build-MT7687Lite/extmod/vfs_posix.o
 .comment       0x0000000000000000       0x80 build-MT7687Lite/extmod/vfs_posix.o
 .ARM.attributes
                0x0000000000000000       0x31 build-MT7687Lite/extmod/vfs_posix.o
 .text          0x0000000000000000        0x0 build-MT7687Lite/extmod/vfs_posix_file.o
 .data          0x0000000000000000        0x0 build-MT7687Lite/extmod/vfs_posix_file.o
 .bss           0x0000000000000000        0x0 build-MT7687Lite/extmod/vfs_posix_file.o
 .debug_info    0x0000000000000000     0x1d7f build-MT7687Lite/extmod/vfs_posix_file.o
 .debug_abbrev  0x0000000000000000      0x228 build-MT7687Lite/extmod/vfs_posix_file.o
 .debug_aranges
                0x0000000000000000       0x18 build-MT7687Lite/extmod/vfs_posix_file.o
 .debug_line    0x0000000000000000      0x29b build-MT7687Lite/extmod/vfs_posix_file.o
 .debug_str     0x0000000000000000     0x1d10 build-MT7687Lite/extmod/vfs_posix_file.o
 .comment       0x0000000000000000       0x80 build-MT7687Lite/extmod/vfs_posix_file.o
 .ARM.attributes
                0x0000000000000000       0x31 build-MT7687Lite/extmod/vfs_posix_file.o
 .text          0x0000000000000000        0x0 build-MT7687Lite/extmod/vfs_fat.o
 .data          0x0000000000000000        0x0 build-MT7687Lite/extmod/vfs_fat.o
 .bss           0x0000000000000000        0x0 build-MT7687Lite/extmod/vfs_fat.o
 .text          0x0000000000000000        0x0 build-MT7687Lite/extmod/vfs_fat_diskio.o
 .data          0x0000000000000000        0x0 build-MT7687Lite/extmod/vfs_fat_diskio.o
 .bss           0x0000000000000000        0x0 build-MT7687Lite/extmod/vfs_fat_diskio.o
 .text          0x0000000000000000        0x0 build-MT7687Lite/extmod/vfs_fat_file.o
 .data          0x0000000000000000        0x0 build-MT7687Lite/extmod/vfs_fat_file.o
 .bss           0x0000000000000000        0x0 build-MT7687Lite/extmod/vfs_fat_file.o
 .text          0x0000000000000000        0x0 build-MT7687Lite/extmod/utime_mphal.o
 .data          0x0000000000000000        0x0 build-MT7687Lite/extmod/utime_mphal.o
 .bss           0x0000000000000000        0x0 build-MT7687Lite/extmod/utime_mphal.o
 .text.time_sleep
                0x0000000000000000       0x18 build-MT7687Lite/extmod/utime_mphal.o
 .rodata.mp_utime_sleep_obj
                0x0000000000000000        0x8 build-MT7687Lite/extmod/utime_mphal.o
 .text          0x0000000000000000        0x0 build-MT7687Lite/extmod/uos_dupterm.o
 .data          0x0000000000000000        0x0 build-MT7687Lite/extmod/uos_dupterm.o
 .bss           0x0000000000000000        0x0 build-MT7687Lite/extmod/uos_dupterm.o
 .debug_info    0x0000000000000000     0x1d69 build-MT7687Lite/extmod/uos_dupterm.o
 .debug_abbrev  0x0000000000000000      0x228 build-MT7687Lite/extmod/uos_dupterm.o
 .debug_aranges
                0x0000000000000000       0x18 build-MT7687Lite/extmod/uos_dupterm.o
 .debug_line    0x0000000000000000      0x2a3 build-MT7687Lite/extmod/uos_dupterm.o
 .debug_str     0x0000000000000000     0x1cdb build-MT7687Lite/extmod/uos_dupterm.o
 .comment       0x0000000000000000       0x80 build-MT7687Lite/extmod/uos_dupterm.o
 .ARM.attributes
                0x0000000000000000       0x31 build-MT7687Lite/extmod/uos_dupterm.o
 .text          0x0000000000000000        0x0 build-MT7687Lite/lib/embed/abort_.o
 .data          0x0000000000000000        0x0 build-MT7687Lite/lib/embed/abort_.o
 .bss           0x0000000000000000        0x0 build-MT7687Lite/lib/embed/abort_.o
 .text.abort_   0x0000000000000000       0x14 build-MT7687Lite/lib/embed/abort_.o
 .rodata.abort_.str1.1
                0x0000000000000000        0xf build-MT7687Lite/lib/embed/abort_.o
 .debug_info    0x0000000000000000     0x1c35 build-MT7687Lite/lib/embed/abort_.o
 .debug_abbrev  0x0000000000000000      0x271 build-MT7687Lite/lib/embed/abort_.o
 .debug_aranges
                0x0000000000000000       0x20 build-MT7687Lite/lib/embed/abort_.o
 .debug_ranges  0x0000000000000000       0x10 build-MT7687Lite/lib/embed/abort_.o
 .debug_line    0x0000000000000000      0x29d build-MT7687Lite/lib/embed/abort_.o
 .debug_str     0x0000000000000000     0x1b65 build-MT7687Lite/lib/embed/abort_.o
 .comment       0x0000000000000000       0x80 build-MT7687Lite/lib/embed/abort_.o
 .debug_frame   0x0000000000000000       0x28 build-MT7687Lite/lib/embed/abort_.o
 .ARM.attributes
                0x0000000000000000       0x31 build-MT7687Lite/lib/embed/abort_.o
 .text          0x0000000000000000        0x0 build-MT7687Lite/lib/utils/printf.o
 .data          0x0000000000000000        0x0 build-MT7687Lite/lib/utils/printf.o
 .bss           0x0000000000000000        0x0 build-MT7687Lite/lib/utils/printf.o
 .text.vprintf  0x0000000000000000       0x10 build-MT7687Lite/lib/utils/printf.o
 .text          0x0000000000000000        0x0 build-MT7687Lite/main.o
 .data          0x0000000000000000        0x0 build-MT7687Lite/main.o
 .bss           0x0000000000000000        0x0 build-MT7687Lite/main.o
 .text          0x0000000000000000        0x0 build-MT7687Lite/mphalport.o
 .data          0x0000000000000000        0x0 build-MT7687Lite/mphalport.o
 .bss           0x0000000000000000        0x0 build-MT7687Lite/mphalport.o
 .text          0x0000000000000000        0x0 build-MT7687Lite/mpthreadport.o
 .data          0x0000000000000000        0x0 build-MT7687Lite/mpthreadport.o
 .bss           0x0000000000000000        0x0 build-MT7687Lite/mpthreadport.o
 .text          0x0000000000000000        0x0 build-MT7687Lite/fatfs_port.o
 .data          0x0000000000000000        0x0 build-MT7687Lite/fatfs_port.o
 .bss           0x0000000000000000        0x0 build-MT7687Lite/fatfs_port.o
 .text          0x0000000000000000        0x0 build-MT7687Lite/chip/Source/system_MT7687.o
 .data          0x0000000000000000        0x0 build-MT7687Lite/chip/Source/system_MT7687.o
 .bss           0x0000000000000000        0x0 build-MT7687Lite/chip/Source/system_MT7687.o
 .text.SystemCoreClockUpdate
                0x0000000000000000        0x2 build-MT7687Lite/chip/Source/system_MT7687.o
 .text.CachePreInit
                0x0000000000000000       0x30 build-MT7687Lite/chip/Source/system_MT7687.o
 .text          0x0000000000000000        0x0 build-MT7687Lite/chip/Source/MT7687_GPIO.o
 .data          0x0000000000000000        0x0 build-MT7687Lite/chip/Source/MT7687_GPIO.o
 .bss           0x0000000000000000        0x0 build-MT7687Lite/chip/Source/MT7687_GPIO.o
 .text          0x0000000000000000        0x0 build-MT7687Lite/chip/Source/MT7687_UART.o
 .data          0x0000000000000000        0x0 build-MT7687Lite/chip/Source/MT7687_UART.o
 .bss           0x0000000000000000        0x0 build-MT7687Lite/chip/Source/MT7687_UART.o
 .text          0x0000000000000000        0x0 build-MT7687Lite/chip/Source/MT7687_TIMR.o
 .data          0x0000000000000000        0x0 build-MT7687Lite/chip/Source/MT7687_TIMR.o
 .bss           0x0000000000000000        0x0 build-MT7687Lite/chip/Source/MT7687_TIMR.o
 .text.TIMR_Restart
                0x0000000000000000       0x24 build-MT7687Lite/chip/Source/MT7687_TIMR.o
 .text.TIMR_CurrentValue
                0x0000000000000000       0x1c build-MT7687Lite/chip/Source/MT7687_TIMR.o
 .text          0x0000000000000000        0x0 build-MT7687Lite/chip/Source/MT7687_PWM.o
 .data          0x0000000000000000        0x0 build-MT7687Lite/chip/Source/MT7687_PWM.o
 .bss           0x0000000000000000        0x0 build-MT7687Lite/chip/Source/MT7687_PWM.o
 .text.PWM_GetOnTime
                0x0000000000000000       0x10 build-MT7687Lite/chip/Source/MT7687_PWM.o
 .text.PWM_GetOffTime
                0x0000000000000000       0x10 build-MT7687Lite/chip/Source/MT7687_PWM.o
 .text          0x0000000000000000        0x0 build-MT7687Lite/chip/Source/MT7687_Flash.o
 .data          0x0000000000000000        0x0 build-MT7687Lite/chip/Source/MT7687_Flash.o
 .bss           0x0000000000000000        0x0 build-MT7687Lite/chip/Source/MT7687_Flash.o
 .data          0x0000000000000000        0x0 build-MT7687Lite/chip/Source/gcc/startup_MT7687.o
 .bss           0x0000000000000000        0x0 build-MT7687Lite/chip/Source/gcc/startup_MT7687.o
 .text          0x0000000000000000        0x0 build-MT7687Lite/rtos/Source/croutine.o
 .data          0x0000000000000000        0x0 build-MT7687Lite/rtos/Source/croutine.o
 .bss           0x0000000000000000        0x0 build-MT7687Lite/rtos/Source/croutine.o
 .debug_info    0x0000000000000000       0x72 build-MT7687Lite/rtos/Source/croutine.o
 .debug_abbrev  0x0000000000000000       0x26 build-MT7687Lite/rtos/Source/croutine.o
 .debug_aranges
                0x0000000000000000       0x18 build-MT7687Lite/rtos/Source/croutine.o
 .debug_line    0x0000000000000000       0x1d build-MT7687Lite/rtos/Source/croutine.o
 .debug_str     0x0000000000000000      0x1f1 build-MT7687Lite/rtos/Source/croutine.o
 .comment       0x0000000000000000       0x80 build-MT7687Lite/rtos/Source/croutine.o
 .ARM.attributes
                0x0000000000000000       0x31 build-MT7687Lite/rtos/Source/croutine.o
 .text          0x0000000000000000        0x0 build-MT7687Lite/rtos/Source/event_groups.o
 .data          0x0000000000000000        0x0 build-MT7687Lite/rtos/Source/event_groups.o
 .bss           0x0000000000000000        0x0 build-MT7687Lite/rtos/Source/event_groups.o
 .text.xEventGroupCreateStatic
                0x0000000000000000       0x18 build-MT7687Lite/rtos/Source/event_groups.o
 .text.xEventGroupCreate
                0x0000000000000000       0x1c build-MT7687Lite/rtos/Source/event_groups.o
 .text.xEventGroupWaitBits
                0x0000000000000000       0xb0 build-MT7687Lite/rtos/Source/event_groups.o
 .text.xEventGroupClearBits
                0x0000000000000000       0x1a build-MT7687Lite/rtos/Source/event_groups.o
 .text.xEventGroupGetBitsFromISR
                0x0000000000000000       0x1c build-MT7687Lite/rtos/Source/event_groups.o
 .text.xEventGroupSetBits
                0x0000000000000000       0x58 build-MT7687Lite/rtos/Source/event_groups.o
 .text.xEventGroupSync
                0x0000000000000000       0x8c build-MT7687Lite/rtos/Source/event_groups.o
 .text.vEventGroupDelete
                0x0000000000000000       0x2a build-MT7687Lite/rtos/Source/event_groups.o
 .text.vEventGroupSetBitsCallback
                0x0000000000000000        0x4 build-MT7687Lite/rtos/Source/event_groups.o
 .text.vEventGroupClearBitsCallback
                0x0000000000000000        0x4 build-MT7687Lite/rtos/Source/event_groups.o
 .debug_info    0x0000000000000000     0x1249 build-MT7687Lite/rtos/Source/event_groups.o
 .debug_abbrev  0x0000000000000000      0x372 build-MT7687Lite/rtos/Source/event_groups.o
 .debug_loc     0x0000000000000000      0x744 build-MT7687Lite/rtos/Source/event_groups.o
 .debug_aranges
                0x0000000000000000       0x68 build-MT7687Lite/rtos/Source/event_groups.o
 .debug_ranges  0x0000000000000000       0x88 build-MT7687Lite/rtos/Source/event_groups.o
 .debug_line    0x0000000000000000      0x361 build-MT7687Lite/rtos/Source/event_groups.o
 .debug_str     0x0000000000000000      0xb51 build-MT7687Lite/rtos/Source/event_groups.o
 .comment       0x0000000000000000       0x80 build-MT7687Lite/rtos/Source/event_groups.o
 .debug_frame   0x0000000000000000      0x114 build-MT7687Lite/rtos/Source/event_groups.o
 .ARM.attributes
                0x0000000000000000       0x31 build-MT7687Lite/rtos/Source/event_groups.o
 .text          0x0000000000000000        0x0 build-MT7687Lite/rtos/Source/list.o
 .data          0x0000000000000000        0x0 build-MT7687Lite/rtos/Source/list.o
 .bss           0x0000000000000000        0x0 build-MT7687Lite/rtos/Source/list.o
 .text          0x0000000000000000        0x0 build-MT7687Lite/rtos/Source/queue.o
 .data          0x0000000000000000        0x0 build-MT7687Lite/rtos/Source/queue.o
 .bss           0x0000000000000000        0x0 build-MT7687Lite/rtos/Source/queue.o
 .text.xQueueGenericCreateStatic
                0x0000000000000000       0x24 build-MT7687Lite/rtos/Source/queue.o
 .text.xQueueCreateMutex
                0x0000000000000000       0x16 build-MT7687Lite/rtos/Source/queue.o
 .text.xQueueGenericSendFromISR
                0x0000000000000000       0x68 build-MT7687Lite/rtos/Source/queue.o
 .text.xQueueGiveFromISR
                0x0000000000000000       0x5c build-MT7687Lite/rtos/Source/queue.o
 .text.xQueueReceiveFromISR
                0x0000000000000000       0x68 build-MT7687Lite/rtos/Source/queue.o
 .text.xQueuePeekFromISR
                0x0000000000000000       0x30 build-MT7687Lite/rtos/Source/queue.o
 .text.uxQueueMessagesWaiting
                0x0000000000000000       0x12 build-MT7687Lite/rtos/Source/queue.o
 .text.uxQueueSpacesAvailable
                0x0000000000000000       0x16 build-MT7687Lite/rtos/Source/queue.o
 .text.uxQueueMessagesWaitingFromISR
                0x0000000000000000        0x4 build-MT7687Lite/rtos/Source/queue.o
 .text.xQueueIsQueueEmptyFromISR
                0x0000000000000000        0xa build-MT7687Lite/rtos/Source/queue.o
 .text.xQueueIsQueueFullFromISR
                0x0000000000000000        0xc build-MT7687Lite/rtos/Source/queue.o
 .text          0x0000000000000000        0x0 build-MT7687Lite/rtos/Source/tasks.o
 .data          0x0000000000000000        0x0 build-MT7687Lite/rtos/Source/tasks.o
 .bss           0x0000000000000000        0x0 build-MT7687Lite/rtos/Source/tasks.o
 .text.xTaskCreate
                0x0000000000000000       0x5a build-MT7687Lite/rtos/Source/tasks.o
 .text.vTaskEndScheduler
                0x0000000000000000       0x20 build-MT7687Lite/rtos/Source/tasks.o
 .text.xTaskGetTickCountFromISR
                0x0000000000000000        0xc build-MT7687Lite/rtos/Source/tasks.o
 .text.uxTaskGetNumberOfTasks
                0x0000000000000000        0xc build-MT7687Lite/rtos/Source/tasks.o
 .text.pcTaskGetName
                0x0000000000000000       0x10 build-MT7687Lite/rtos/Source/tasks.o
 .text.vTaskPlaceOnUnorderedEventList
                0x0000000000000000       0x24 build-MT7687Lite/rtos/Source/tasks.o
 .text.xTaskRemoveFromUnorderedEventList
                0x0000000000000000       0x5c build-MT7687Lite/rtos/Source/tasks.o
 .text.uxTaskResetEventItemValue
                0x0000000000000000       0x18 build-MT7687Lite/rtos/Source/tasks.o
 .text.ulTaskNotifyTake
                0x0000000000000000       0x64 build-MT7687Lite/rtos/Source/tasks.o
 .text.xTaskNotifyWait
                0x0000000000000000       0x8c build-MT7687Lite/rtos/Source/tasks.o
 .text.xTaskGenericNotify
                0x0000000000000000       0xa4 build-MT7687Lite/rtos/Source/tasks.o
 .text.xTaskGenericNotifyFromISR
                0x0000000000000000       0xc4 build-MT7687Lite/rtos/Source/tasks.o
 .text.vTaskNotifyGiveFromISR
                0x0000000000000000       0x9c build-MT7687Lite/rtos/Source/tasks.o
 .text.xTaskNotifyStateClear
                0x0000000000000000       0x30 build-MT7687Lite/rtos/Source/tasks.o
 .text          0x0000000000000000        0x0 build-MT7687Lite/rtos/Source/timers.o
 .data          0x0000000000000000        0x0 build-MT7687Lite/rtos/Source/timers.o
 .bss           0x0000000000000000        0x0 build-MT7687Lite/rtos/Source/timers.o
 .debug_info    0x0000000000000000      0x898 build-MT7687Lite/rtos/Source/timers.o
 .debug_abbrev  0x0000000000000000      0x18b build-MT7687Lite/rtos/Source/timers.o
 .debug_aranges
                0x0000000000000000       0x18 build-MT7687Lite/rtos/Source/timers.o
 .debug_line    0x0000000000000000       0xfb build-MT7687Lite/rtos/Source/timers.o
 .debug_str     0x0000000000000000      0x5d5 build-MT7687Lite/rtos/Source/timers.o
 .comment       0x0000000000000000       0x80 build-MT7687Lite/rtos/Source/timers.o
 .ARM.attributes
                0x0000000000000000       0x31 build-MT7687Lite/rtos/Source/timers.o
 .text          0x0000000000000000        0x0 build-MT7687Lite/rtos/Source/portable/ARM_CM4/port.o
 .data          0x0000000000000000        0x0 build-MT7687Lite/rtos/Source/portable/ARM_CM4/port.o
 .bss           0x0000000000000000        0x0 build-MT7687Lite/rtos/Source/portable/ARM_CM4/port.o
 .text.vPortEndScheduler
                0x0000000000000000        0x2 build-MT7687Lite/rtos/Source/portable/ARM_CM4/port.o
 .text          0x0000000000000000        0x0 build-MT7687Lite/rtos/Source/portable/MemMang/heap_4.o
 .data          0x0000000000000000        0x0 build-MT7687Lite/rtos/Source/portable/MemMang/heap_4.o
 .bss           0x0000000000000000        0x0 build-MT7687Lite/rtos/Source/portable/MemMang/heap_4.o
 .text.xPortGetFreeHeapSize
                0x0000000000000000        0xc build-MT7687Lite/rtos/Source/portable/MemMang/heap_4.o
 .text.xPortGetMinimumEverFreeHeapSize
                0x0000000000000000        0xc build-MT7687Lite/rtos/Source/portable/MemMang/heap_4.o
 .text.vPortInitialiseBlocks
                0x0000000000000000        0x2 build-MT7687Lite/rtos/Source/portable/MemMang/heap_4.o
 .text          0x0000000000000000        0x0 build-MT7687Lite/mods/moduos.o
 .data          0x0000000000000000        0x0 build-MT7687Lite/mods/moduos.o
 .bss           0x0000000000000000        0x0 build-MT7687Lite/mods/moduos.o
 .text.osmount_unmount_all
                0x0000000000000000        0x2 build-MT7687Lite/mods/moduos.o
 .text          0x0000000000000000        0x0 build-MT7687Lite/mods/modmachine.o
 .data          0x0000000000000000        0x0 build-MT7687Lite/mods/modmachine.o
 .bss           0x0000000000000000        0x0 build-MT7687Lite/mods/modmachine.o
 .text          0x0000000000000000        0x0 build-MT7687Lite/mods/modutime.o
 .data          0x0000000000000000        0x0 build-MT7687Lite/mods/modutime.o
 .bss           0x0000000000000000        0x0 build-MT7687Lite/mods/modutime.o
 .text          0x0000000000000000        0x0 build-MT7687Lite/mods/modubinascii.o
 .data          0x0000000000000000        0x0 build-MT7687Lite/mods/modubinascii.o
 .bss           0x0000000000000000        0x0 build-MT7687Lite/mods/modubinascii.o
 .text          0x0000000000000000        0x0 build-MT7687Lite/mods/pybuart.o
 .data          0x0000000000000000        0x0 build-MT7687Lite/mods/pybuart.o
 .bss           0x0000000000000000        0x0 build-MT7687Lite/mods/pybuart.o
 .text          0x0000000000000000        0x0 build-MT7687Lite/mods/pybflash.o
 .data          0x0000000000000000        0x0 build-MT7687Lite/mods/pybflash.o
 .bss           0x0000000000000000        0x0 build-MT7687Lite/mods/pybflash.o
 .text          0x0000000000000000        0x0 build-MT7687Lite/mods/pybpin.o
 .data          0x0000000000000000        0x0 build-MT7687Lite/mods/pybpin.o
 .bss           0x0000000000000000        0x0 build-MT7687Lite/mods/pybpin.o
 .text.pin_find_by_name
                0x0000000000000000       0x24 build-MT7687Lite/mods/pybpin.o
 .text          0x0000000000000000        0x0 build-MT7687Lite/mods/pybtimer.o
 .data          0x0000000000000000        0x0 build-MT7687Lite/mods/pybtimer.o
 .bss           0x0000000000000000        0x0 build-MT7687Lite/mods/pybtimer.o
 .text          0x0000000000000000        0x0 build-MT7687Lite/mods/pybpwm.o
 .data          0x0000000000000000        0x0 build-MT7687Lite/mods/pybpwm.o
 .bss           0x0000000000000000        0x0 build-MT7687Lite/mods/pybpwm.o
 .text          0x0000000000000000        0x0 build-MT7687Lite/misc/fifo.o
 .data          0x0000000000000000        0x0 build-MT7687Lite/misc/fifo.o
 .bss           0x0000000000000000        0x0 build-MT7687Lite/misc/fifo.o
 .text.FIFO_Init
                0x0000000000000000       0x16 build-MT7687Lite/misc/fifo.o
 .text.FIFO_IsEmpty
                0x0000000000000000        0xc build-MT7687Lite/misc/fifo.o
 .text.FIFO_bPopElement
                0x0000000000000000       0x32 build-MT7687Lite/misc/fifo.o
 .text.FIFO_bPeekElement
                0x0000000000000000       0x1a build-MT7687Lite/misc/fifo.o
 .text.FIFO_IsFull
                0x0000000000000000       0x10 build-MT7687Lite/misc/fifo.o
 .text.FIFO_bPushElement
                0x0000000000000000       0x32 build-MT7687Lite/misc/fifo.o
 .text.FIFO_Flush
                0x0000000000000000       0x10 build-MT7687Lite/misc/fifo.o
 .debug_info    0x0000000000000000      0x2e5 build-MT7687Lite/misc/fifo.o
 .debug_abbrev  0x0000000000000000      0x10d build-MT7687Lite/misc/fifo.o
 .debug_loc     0x0000000000000000      0x152 build-MT7687Lite/misc/fifo.o
 .debug_aranges
                0x0000000000000000       0x50 build-MT7687Lite/misc/fifo.o
 .debug_ranges  0x0000000000000000       0x40 build-MT7687Lite/misc/fifo.o
 .debug_line    0x0000000000000000       0xe1 build-MT7687Lite/misc/fifo.o
 .debug_str     0x0000000000000000      0x2b6 build-MT7687Lite/misc/fifo.o
 .comment       0x0000000000000000       0x80 build-MT7687Lite/misc/fifo.o
 .debug_frame   0x0000000000000000       0xa4 build-MT7687Lite/misc/fifo.o
 .ARM.attributes
                0x0000000000000000       0x31 build-MT7687Lite/misc/fifo.o
 .text          0x0000000000000000        0x0 build-MT7687Lite/misc/bufhelper.o
 .data          0x0000000000000000        0x0 build-MT7687Lite/misc/bufhelper.o
 .bss           0x0000000000000000        0x0 build-MT7687Lite/misc/bufhelper.o
 .text.pyb_buf_get_for_send
                0x0000000000000000       0x38 build-MT7687Lite/misc/bufhelper.o
 .text.pyb_buf_get_for_recv
                0x0000000000000000       0x48 build-MT7687Lite/misc/bufhelper.o
 .debug_info    0x0000000000000000     0x1702 build-MT7687Lite/misc/bufhelper.o
 .debug_abbrev  0x0000000000000000      0x2fe build-MT7687Lite/misc/bufhelper.o
 .debug_loc     0x0000000000000000      0x129 build-MT7687Lite/misc/bufhelper.o
 .debug_aranges
                0x0000000000000000       0x28 build-MT7687Lite/misc/bufhelper.o
 .debug_ranges  0x0000000000000000       0x18 build-MT7687Lite/misc/bufhelper.o
 .debug_line    0x0000000000000000      0x20d build-MT7687Lite/misc/bufhelper.o
 .debug_str     0x0000000000000000     0x161f build-MT7687Lite/misc/bufhelper.o
 .comment       0x0000000000000000       0x80 build-MT7687Lite/misc/bufhelper.o
 .debug_frame   0x0000000000000000       0x58 build-MT7687Lite/misc/bufhelper.o
 .ARM.attributes
                0x0000000000000000       0x31 build-MT7687Lite/misc/bufhelper.o
 .text          0x0000000000000000        0x0 build-MT7687Lite/misc/gccollect.o
 .data          0x0000000000000000        0x0 build-MT7687Lite/misc/gccollect.o
 .bss           0x0000000000000000        0x0 build-MT7687Lite/misc/gccollect.o
 .text          0x0000000000000000        0x0 build-MT7687Lite/misc/mperror.o
 .data          0x0000000000000000        0x0 build-MT7687Lite/misc/mperror.o
 .bss           0x0000000000000000        0x0 build-MT7687Lite/misc/mperror.o
 .text.mperror_bootloader_check_reset_cause
                0x0000000000000000        0x2 build-MT7687Lite/misc/mperror.o
 .text.mperror_deinit_sfe_pin
                0x0000000000000000        0x2 build-MT7687Lite/misc/mperror.o
 .text.mperror_heartbeat_signal
                0x0000000000000000       0x10 build-MT7687Lite/misc/mperror.o
 .text.mperror_enable_heartbeat
                0x0000000000000000       0x18 build-MT7687Lite/misc/mperror.o
 .text.mperror_is_heartbeat_enabled
                0x0000000000000000        0xc build-MT7687Lite/misc/mperror.o
 .rodata.mpexception_num_type_invalid_arguments
                0x0000000000000000       0x1d build-MT7687Lite/misc/mperror.o
 .rodata.mpexception_uncaught
                0x0000000000000000       0x13 build-MT7687Lite/misc/mperror.o
 .text          0x0000000000000000        0x0 build-MT7687Lite/misc/random.o
 .data          0x0000000000000000        0x0 build-MT7687Lite/misc/random.o
 .bss           0x0000000000000000        0x0 build-MT7687Lite/misc/random.o
 .text.rng_init0
                0x0000000000000000       0x54 build-MT7687Lite/misc/random.o
 .text          0x0000000000000000        0x0 build-MT7687Lite/misc/mpirq.o
 .data          0x0000000000000000        0x0 build-MT7687Lite/misc/mpirq.o
 .bss           0x0000000000000000        0x0 build-MT7687Lite/misc/mpirq.o
 .text.mp_irq_wake_all
                0x0000000000000000       0x2c build-MT7687Lite/misc/mpirq.o
 .text.mp_irq_disable_all
                0x0000000000000000       0x28 build-MT7687Lite/misc/mpirq.o
 .data          0x0000000000000000        0x0 build-MT7687Lite/misc/gchelper.o
 .bss           0x0000000000000000        0x0 build-MT7687Lite/misc/gchelper.o
 .text          0x0000000000000000        0x0 build-MT7687Lite/lib/oofatfs/ff.o
 .data          0x0000000000000000        0x0 build-MT7687Lite/lib/oofatfs/ff.o
 .bss           0x0000000000000000        0x0 build-MT7687Lite/lib/oofatfs/ff.o
 .text.f_truncate
                0x0000000000000000       0x9c build-MT7687Lite/lib/oofatfs/ff.o
 .text.f_chmod  0x0000000000000000       0x64 build-MT7687Lite/lib/oofatfs/ff.o
 .text.f_utime  0x0000000000000000       0x5e build-MT7687Lite/lib/oofatfs/ff.o
 .text          0x0000000000000000        0x0 build-MT7687Lite/lib/oofatfs/option/unicode.o
 .data          0x0000000000000000        0x0 build-MT7687Lite/lib/oofatfs/option/unicode.o
 .bss           0x0000000000000000        0x0 build-MT7687Lite/lib/oofatfs/option/unicode.o
 .text          0x0000000000000000        0x0 build-MT7687Lite/lib/libc/string0.o
 .data          0x0000000000000000        0x0 build-MT7687Lite/lib/libc/string0.o
 .bss           0x0000000000000000        0x0 build-MT7687Lite/lib/libc/string0.o
 .text.memchr   0x0000000000000000       0x1e build-MT7687Lite/lib/libc/string0.o
 .text.strcpy   0x0000000000000000       0x14 build-MT7687Lite/lib/libc/string0.o
 .text.stpcpy   0x0000000000000000       0x12 build-MT7687Lite/lib/libc/string0.o
 .text.strcat   0x0000000000000000       0x22 build-MT7687Lite/lib/libc/string0.o
 .text.strstr   0x0000000000000000       0x34 build-MT7687Lite/lib/libc/string0.o
 .text          0x0000000000000000        0x0 build-MT7687Lite/lib/mp-readline/readline.o
 .data          0x0000000000000000        0x0 build-MT7687Lite/lib/mp-readline/readline.o
 .bss           0x0000000000000000        0x0 build-MT7687Lite/lib/mp-readline/readline.o
 .text.readline_note_newline
                0x0000000000000000       0x20 build-MT7687Lite/lib/mp-readline/readline.o
 .text          0x0000000000000000        0x0 build-MT7687Lite/lib/netutils/netutils.o
 .data          0x0000000000000000        0x0 build-MT7687Lite/lib/netutils/netutils.o
 .bss           0x0000000000000000        0x0 build-MT7687Lite/lib/netutils/netutils.o
 .text.netutils_format_ipv4_addr
                0x0000000000000000       0x38 build-MT7687Lite/lib/netutils/netutils.o
 .text.netutils_format_inet_addr
                0x0000000000000000       0x20 build-MT7687Lite/lib/netutils/netutils.o
 .text.netutils_parse_ipv4_addr
                0x0000000000000000       0x78 build-MT7687Lite/lib/netutils/netutils.o
 .text.netutils_parse_inet_addr
                0x0000000000000000       0x26 build-MT7687Lite/lib/netutils/netutils.o
 .rodata.netutils_format_ipv4_addr.str1.1
                0x0000000000000000        0xc build-MT7687Lite/lib/netutils/netutils.o
 .rodata.netutils_parse_ipv4_addr.str1.1
                0x0000000000000000       0x12 build-MT7687Lite/lib/netutils/netutils.o
 .debug_info    0x0000000000000000     0x1f53 build-MT7687Lite/lib/netutils/netutils.o
 .debug_abbrev  0x0000000000000000      0x33a build-MT7687Lite/lib/netutils/netutils.o
 .debug_loc     0x0000000000000000      0x2b0 build-MT7687Lite/lib/netutils/netutils.o
 .debug_aranges
                0x0000000000000000       0x38 build-MT7687Lite/lib/netutils/netutils.o
 .debug_ranges  0x0000000000000000       0x60 build-MT7687Lite/lib/netutils/netutils.o
 .debug_line    0x0000000000000000      0x36e build-MT7687Lite/lib/netutils/netutils.o
 .debug_str     0x0000000000000000     0x1cdf build-MT7687Lite/lib/netutils/netutils.o
 .comment       0x0000000000000000       0x80 build-MT7687Lite/lib/netutils/netutils.o
 .debug_frame   0x0000000000000000       0x9c build-MT7687Lite/lib/netutils/netutils.o
 .ARM.attributes
                0x0000000000000000       0x31 build-MT7687Lite/lib/netutils/netutils.o
 .text          0x0000000000000000        0x0 build-MT7687Lite/lib/timeutils/timeutils.o
 .data          0x0000000000000000        0x0 build-MT7687Lite/lib/timeutils/timeutils.o
 .bss           0x0000000000000000        0x0 build-MT7687Lite/lib/timeutils/timeutils.o
 .text          0x0000000000000000        0x0 build-MT7687Lite/lib/utils/pyexec.o
 .data          0x0000000000000000        0x0 build-MT7687Lite/lib/utils/pyexec.o
 .bss           0x0000000000000000        0x0 build-MT7687Lite/lib/utils/pyexec.o
 .text.pyb_set_repl_info
                0x0000000000000000       0x1c build-MT7687Lite/lib/utils/pyexec.o
 .rodata.pyb_set_repl_info_obj
                0x0000000000000000        0x8 build-MT7687Lite/lib/utils/pyexec.o
 .text          0x0000000000000000        0x0 build-MT7687Lite/lib/utils/interrupt_char.o
 .data          0x0000000000000000        0x0 build-MT7687Lite/lib/utils/interrupt_char.o
 .bss           0x0000000000000000        0x0 build-MT7687Lite/lib/utils/interrupt_char.o
 .text          0x0000000000000000        0x0 build-MT7687Lite/lib/utils/sys_stdio_mphal.o
 .data          0x0000000000000000        0x0 build-MT7687Lite/lib/utils/sys_stdio_mphal.o
 .bss           0x0000000000000000        0x0 build-MT7687Lite/lib/utils/sys_stdio_mphal.o
 .text          0x0000000000000000        0x0 build-MT7687Lite/pins.o
 .data          0x0000000000000000        0x0 build-MT7687Lite/pins.o
 .bss           0x0000000000000000        0x0 build-MT7687Lite/pins.o
 .text          0x0000000000000000        0x0 /mnt/c/Ubuntu/gcc-arm-none/bin/../lib/gcc/arm-none-eabi/6.3.1/../../../../arm-none-eabi/lib/libc.a(lib_a-exit.o)
 .data          0x0000000000000000        0x0 /mnt/c/Ubuntu/gcc-arm-none/bin/../lib/gcc/arm-none-eabi/6.3.1/../../../../arm-none-eabi/lib/libc.a(lib_a-exit.o)
 .bss           0x0000000000000000        0x0 /mnt/c/Ubuntu/gcc-arm-none/bin/../lib/gcc/arm-none-eabi/6.3.1/../../../../arm-none-eabi/lib/libc.a(lib_a-exit.o)
 .text.exit     0x0000000000000000       0x34 /mnt/c/Ubuntu/gcc-arm-none/bin/../lib/gcc/arm-none-eabi/6.3.1/../../../../arm-none-eabi/lib/libc.a(lib_a-exit.o)
 .debug_frame   0x0000000000000000       0x28 /mnt/c/Ubuntu/gcc-arm-none/bin/../lib/gcc/arm-none-eabi/6.3.1/../../../../arm-none-eabi/lib/libc.a(lib_a-exit.o)
 .ARM.attributes
                0x0000000000000000       0x30 /mnt/c/Ubuntu/gcc-arm-none/bin/../lib/gcc/arm-none-eabi/6.3.1/../../../../arm-none-eabi/lib/libc.a(lib_a-exit.o)
 .text          0x0000000000000000        0x0 /mnt/c/Ubuntu/gcc-arm-none/bin/../lib/gcc/arm-none-eabi/6.3.1/../../../../arm-none-eabi/lib/libc.a(lib_a-impure.o)
 .data          0x0000000000000000        0x0 /mnt/c/Ubuntu/gcc-arm-none/bin/../lib/gcc/arm-none-eabi/6.3.1/../../../../arm-none-eabi/lib/libc.a(lib_a-impure.o)
 .bss           0x0000000000000000        0x0 /mnt/c/Ubuntu/gcc-arm-none/bin/../lib/gcc/arm-none-eabi/6.3.1/../../../../arm-none-eabi/lib/libc.a(lib_a-impure.o)
 .data._impure_ptr
                0x0000000000000000        0x4 /mnt/c/Ubuntu/gcc-arm-none/bin/../lib/gcc/arm-none-eabi/6.3.1/../../../../arm-none-eabi/lib/libc.a(lib_a-impure.o)
 .data.impure_data
                0x0000000000000000      0x428 /mnt/c/Ubuntu/gcc-arm-none/bin/../lib/gcc/arm-none-eabi/6.3.1/../../../../arm-none-eabi/lib/libc.a(lib_a-impure.o)
 .rodata._global_impure_ptr
                0x0000000000000000        0x4 /mnt/c/Ubuntu/gcc-arm-none/bin/../lib/gcc/arm-none-eabi/6.3.1/../../../../arm-none-eabi/lib/libc.a(lib_a-impure.o)
 .ARM.attributes
                0x0000000000000000       0x30 /mnt/c/Ubuntu/gcc-arm-none/bin/../lib/gcc/arm-none-eabi/6.3.1/../../../../arm-none-eabi/lib/libc.a(lib_a-impure.o)
 .text          0x0000000000000000        0x0 /mnt/c/Ubuntu/gcc-arm-none/bin/../lib/gcc/arm-none-eabi/6.3.1/../../../../arm-none-eabi/lib/libc.a(lib_a-init.o)
 .data          0x0000000000000000        0x0 /mnt/c/Ubuntu/gcc-arm-none/bin/../lib/gcc/arm-none-eabi/6.3.1/../../../../arm-none-eabi/lib/libc.a(lib_a-init.o)
 .bss           0x0000000000000000        0x0 /mnt/c/Ubuntu/gcc-arm-none/bin/../lib/gcc/arm-none-eabi/6.3.1/../../../../arm-none-eabi/lib/libc.a(lib_a-init.o)
 .text.__libc_init_array
                0x0000000000000000       0x80 /mnt/c/Ubuntu/gcc-arm-none/bin/../lib/gcc/arm-none-eabi/6.3.1/../../../../arm-none-eabi/lib/libc.a(lib_a-init.o)
 .debug_frame   0x0000000000000000       0x34 /mnt/c/Ubuntu/gcc-arm-none/bin/../lib/gcc/arm-none-eabi/6.3.1/../../../../arm-none-eabi/lib/libc.a(lib_a-init.o)
 .ARM.attributes
                0x0000000000000000       0x30 /mnt/c/Ubuntu/gcc-arm-none/bin/../lib/gcc/arm-none-eabi/6.3.1/../../../../arm-none-eabi/lib/libc.a(lib_a-init.o)
 .text          0x0000000000000000        0x0 /mnt/c/Ubuntu/gcc-arm-none/bin/../lib/gcc/arm-none-eabi/6.3.1/../../../../arm-none-eabi/lib/libc.a(lib_a-__call_atexit.o)
 .data          0x0000000000000000        0x0 /mnt/c/Ubuntu/gcc-arm-none/bin/../lib/gcc/arm-none-eabi/6.3.1/../../../../arm-none-eabi/lib/libc.a(lib_a-__call_atexit.o)
 .bss           0x0000000000000000        0x0 /mnt/c/Ubuntu/gcc-arm-none/bin/../lib/gcc/arm-none-eabi/6.3.1/../../../../arm-none-eabi/lib/libc.a(lib_a-__call_atexit.o)
 .text.startup.register_fini
                0x0000000000000000       0x28 /mnt/c/Ubuntu/gcc-arm-none/bin/../lib/gcc/arm-none-eabi/6.3.1/../../../../arm-none-eabi/lib/libc.a(lib_a-__call_atexit.o)
 .init_array.00000
                0x0000000000000000        0x4 /mnt/c/Ubuntu/gcc-arm-none/bin/../lib/gcc/arm-none-eabi/6.3.1/../../../../arm-none-eabi/lib/libc.a(lib_a-__call_atexit.o)
 .text.__call_exitprocs
                0x0000000000000000      0x18c /mnt/c/Ubuntu/gcc-arm-none/bin/../lib/gcc/arm-none-eabi/6.3.1/../../../../arm-none-eabi/lib/libc.a(lib_a-__call_atexit.o)
 .data.__atexit_recursive_mutex
                0x0000000000000000        0x4 /mnt/c/Ubuntu/gcc-arm-none/bin/../lib/gcc/arm-none-eabi/6.3.1/../../../../arm-none-eabi/lib/libc.a(lib_a-__call_atexit.o)
 .debug_frame   0x0000000000000000       0x68 /mnt/c/Ubuntu/gcc-arm-none/bin/../lib/gcc/arm-none-eabi/6.3.1/../../../../arm-none-eabi/lib/libc.a(lib_a-__call_atexit.o)
 .ARM.attributes
                0x0000000000000000       0x30 /mnt/c/Ubuntu/gcc-arm-none/bin/../lib/gcc/arm-none-eabi/6.3.1/../../../../arm-none-eabi/lib/libc.a(lib_a-__call_atexit.o)
 .text          0x0000000000000000        0x0 /mnt/c/Ubuntu/gcc-arm-none/bin/../lib/gcc/arm-none-eabi/6.3.1/../../../../arm-none-eabi/lib/libc.a(lib_a-atexit.o)
 .data          0x0000000000000000        0x0 /mnt/c/Ubuntu/gcc-arm-none/bin/../lib/gcc/arm-none-eabi/6.3.1/../../../../arm-none-eabi/lib/libc.a(lib_a-atexit.o)
 .bss           0x0000000000000000        0x0 /mnt/c/Ubuntu/gcc-arm-none/bin/../lib/gcc/arm-none-eabi/6.3.1/../../../../arm-none-eabi/lib/libc.a(lib_a-atexit.o)
 .text.atexit   0x0000000000000000       0x20 /mnt/c/Ubuntu/gcc-arm-none/bin/../lib/gcc/arm-none-eabi/6.3.1/../../../../arm-none-eabi/lib/libc.a(lib_a-atexit.o)
 .debug_frame   0x0000000000000000       0x2c /mnt/c/Ubuntu/gcc-arm-none/bin/../lib/gcc/arm-none-eabi/6.3.1/../../../../arm-none-eabi/lib/libc.a(lib_a-atexit.o)
 .ARM.attributes
                0x0000000000000000       0x30 /mnt/c/Ubuntu/gcc-arm-none/bin/../lib/gcc/arm-none-eabi/6.3.1/../../../../arm-none-eabi/lib/libc.a(lib_a-atexit.o)
 .text          0x0000000000000000        0x0 /mnt/c/Ubuntu/gcc-arm-none/bin/../lib/gcc/arm-none-eabi/6.3.1/../../../../arm-none-eabi/lib/libc.a(lib_a-fini.o)
 .data          0x0000000000000000        0x0 /mnt/c/Ubuntu/gcc-arm-none/bin/../lib/gcc/arm-none-eabi/6.3.1/../../../../arm-none-eabi/lib/libc.a(lib_a-fini.o)
 .bss           0x0000000000000000        0x0 /mnt/c/Ubuntu/gcc-arm-none/bin/../lib/gcc/arm-none-eabi/6.3.1/../../../../arm-none-eabi/lib/libc.a(lib_a-fini.o)
 .text.__libc_fini_array
                0x0000000000000000       0x48 /mnt/c/Ubuntu/gcc-arm-none/bin/../lib/gcc/arm-none-eabi/6.3.1/../../../../arm-none-eabi/lib/libc.a(lib_a-fini.o)
 .debug_frame   0x0000000000000000       0x34 /mnt/c/Ubuntu/gcc-arm-none/bin/../lib/gcc/arm-none-eabi/6.3.1/../../../../arm-none-eabi/lib/libc.a(lib_a-fini.o)
 .ARM.attributes
                0x0000000000000000       0x30 /mnt/c/Ubuntu/gcc-arm-none/bin/../lib/gcc/arm-none-eabi/6.3.1/../../../../arm-none-eabi/lib/libc.a(lib_a-fini.o)
 .text          0x0000000000000000        0x0 /mnt/c/Ubuntu/gcc-arm-none/bin/../lib/gcc/arm-none-eabi/6.3.1/../../../../arm-none-eabi/lib/libc.a(lib_a-lock.o)
 .data          0x0000000000000000        0x0 /mnt/c/Ubuntu/gcc-arm-none/bin/../lib/gcc/arm-none-eabi/6.3.1/../../../../arm-none-eabi/lib/libc.a(lib_a-lock.o)
 .bss           0x0000000000000000        0x0 /mnt/c/Ubuntu/gcc-arm-none/bin/../lib/gcc/arm-none-eabi/6.3.1/../../../../arm-none-eabi/lib/libc.a(lib_a-lock.o)
 .text.__retarget_lock_init
                0x0000000000000000        0x4 /mnt/c/Ubuntu/gcc-arm-none/bin/../lib/gcc/arm-none-eabi/6.3.1/../../../../arm-none-eabi/lib/libc.a(lib_a-lock.o)
 .text.__retarget_lock_init_recursive
                0x0000000000000000        0x4 /mnt/c/Ubuntu/gcc-arm-none/bin/../lib/gcc/arm-none-eabi/6.3.1/../../../../arm-none-eabi/lib/libc.a(lib_a-lock.o)
 .text.__retarget_lock_close
                0x0000000000000000        0x4 /mnt/c/Ubuntu/gcc-arm-none/bin/../lib/gcc/arm-none-eabi/6.3.1/../../../../arm-none-eabi/lib/libc.a(lib_a-lock.o)
 .text.__retarget_lock_close_recursive
                0x0000000000000000        0x4 /mnt/c/Ubuntu/gcc-arm-none/bin/../lib/gcc/arm-none-eabi/6.3.1/../../../../arm-none-eabi/lib/libc.a(lib_a-lock.o)
 .text.__retarget_lock_acquire
                0x0000000000000000        0x4 /mnt/c/Ubuntu/gcc-arm-none/bin/../lib/gcc/arm-none-eabi/6.3.1/../../../../arm-none-eabi/lib/libc.a(lib_a-lock.o)
 .text.__retarget_lock_acquire_recursive
                0x0000000000000000        0x4 /mnt/c/Ubuntu/gcc-arm-none/bin/../lib/gcc/arm-none-eabi/6.3.1/../../../../arm-none-eabi/lib/libc.a(lib_a-lock.o)
 .text.__retarget_lock_try_acquire
                0x0000000000000000        0x8 /mnt/c/Ubuntu/gcc-arm-none/bin/../lib/gcc/arm-none-eabi/6.3.1/../../../../arm-none-eabi/lib/libc.a(lib_a-lock.o)
 .text.__retarget_lock_try_acquire_recursive
                0x0000000000000000        0x8 /mnt/c/Ubuntu/gcc-arm-none/bin/../lib/gcc/arm-none-eabi/6.3.1/../../../../arm-none-eabi/lib/libc.a(lib_a-lock.o)
 .text.__retarget_lock_release
                0x0000000000000000        0x4 /mnt/c/Ubuntu/gcc-arm-none/bin/../lib/gcc/arm-none-eabi/6.3.1/../../../../arm-none-eabi/lib/libc.a(lib_a-lock.o)
 .text.__retarget_lock_release_recursive
                0x0000000000000000        0x4 /mnt/c/Ubuntu/gcc-arm-none/bin/../lib/gcc/arm-none-eabi/6.3.1/../../../../arm-none-eabi/lib/libc.a(lib_a-lock.o)
 .debug_frame   0x0000000000000000       0xb0 /mnt/c/Ubuntu/gcc-arm-none/bin/../lib/gcc/arm-none-eabi/6.3.1/../../../../arm-none-eabi/lib/libc.a(lib_a-lock.o)
 .ARM.attributes
                0x0000000000000000       0x30 /mnt/c/Ubuntu/gcc-arm-none/bin/../lib/gcc/arm-none-eabi/6.3.1/../../../../arm-none-eabi/lib/libc.a(lib_a-lock.o)
 COMMON         0x0000000000000000       0x21 /mnt/c/Ubuntu/gcc-arm-none/bin/../lib/gcc/arm-none-eabi/6.3.1/../../../../arm-none-eabi/lib/libc.a(lib_a-lock.o)
 .text          0x0000000000000000        0x0 /mnt/c/Ubuntu/gcc-arm-none/bin/../lib/gcc/arm-none-eabi/6.3.1/../../../../arm-none-eabi/lib/libc.a(lib_a-__atexit.o)
 .data          0x0000000000000000        0x0 /mnt/c/Ubuntu/gcc-arm-none/bin/../lib/gcc/arm-none-eabi/6.3.1/../../../../arm-none-eabi/lib/libc.a(lib_a-__atexit.o)
 .bss           0x0000000000000000        0x0 /mnt/c/Ubuntu/gcc-arm-none/bin/../lib/gcc/arm-none-eabi/6.3.1/../../../../arm-none-eabi/lib/libc.a(lib_a-__atexit.o)
 .text.__register_exitproc
                0x0000000000000000      0x100 /mnt/c/Ubuntu/gcc-arm-none/bin/../lib/gcc/arm-none-eabi/6.3.1/../../../../arm-none-eabi/lib/libc.a(lib_a-__atexit.o)
 .debug_frame   0x0000000000000000       0x44 /mnt/c/Ubuntu/gcc-arm-none/bin/../lib/gcc/arm-none-eabi/6.3.1/../../../../arm-none-eabi/lib/libc.a(lib_a-__atexit.o)
 .ARM.attributes
                0x0000000000000000       0x30 /mnt/c/Ubuntu/gcc-arm-none/bin/../lib/gcc/arm-none-eabi/6.3.1/../../../../arm-none-eabi/lib/libc.a(lib_a-__atexit.o)
 .text          0x0000000000000000        0x0 /mnt/c/Ubuntu/gcc-arm-none/bin/../lib/gcc/arm-none-eabi/6.3.1/crtend.o
 .data          0x0000000000000000        0x0 /mnt/c/Ubuntu/gcc-arm-none/bin/../lib/gcc/arm-none-eabi/6.3.1/crtend.o
 .bss           0x0000000000000000        0x0 /mnt/c/Ubuntu/gcc-arm-none/bin/../lib/gcc/arm-none-eabi/6.3.1/crtend.o
 .eh_frame      0x0000000000000000        0x4 /mnt/c/Ubuntu/gcc-arm-none/bin/../lib/gcc/arm-none-eabi/6.3.1/crtend.o
 .jcr           0x0000000000000000        0x4 /mnt/c/Ubuntu/gcc-arm-none/bin/../lib/gcc/arm-none-eabi/6.3.1/crtend.o
 .ARM.attributes
                0x0000000000000000       0x30 /mnt/c/Ubuntu/gcc-arm-none/bin/../lib/gcc/arm-none-eabi/6.3.1/crtend.o
 .text          0x0000000000000000        0x0 /mnt/c/Ubuntu/gcc-arm-none/bin/../lib/gcc/arm-none-eabi/6.3.1/crtn.o
 .data          0x0000000000000000        0x0 /mnt/c/Ubuntu/gcc-arm-none/bin/../lib/gcc/arm-none-eabi/6.3.1/crtn.o
 .bss           0x0000000000000000        0x0 /mnt/c/Ubuntu/gcc-arm-none/bin/../lib/gcc/arm-none-eabi/6.3.1/crtn.o
 .init          0x0000000000000000        0xc /mnt/c/Ubuntu/gcc-arm-none/bin/../lib/gcc/arm-none-eabi/6.3.1/crtn.o
 .fini          0x0000000000000000        0xc /mnt/c/Ubuntu/gcc-arm-none/bin/../lib/gcc/arm-none-eabi/6.3.1/crtn.o
 .ARM.attributes
                0x0000000000000000       0x18 /mnt/c/Ubuntu/gcc-arm-none/bin/../lib/gcc/arm-none-eabi/6.3.1/crtn.o

Memory Configuration

Name             Origin             Length             Attributes
ROM_CODE         0x0000000000000000 0x0000000000005000 axr
BOOTLOADER       0x0000000010000000 0x0000000000008000 axr
RESERVED         0x0000000010008000 0x0000000000008000 ar
N9_CODE          0x0000000010010000 0x0000000000069000 ar
XIP_CODE         0x0000000010079000 0x000000000017e000 axr
ROM_NVDM         0x00000000101f7000 0x0000000000009000 ar
TCMRAM           0x0000000000100100 0x000000000000ff00 arw
SYSRAM           0x0000000020000000 0x000000000003fc00 arw
*default*        0x0000000000000000 0xffffffffffffffff

Linker script and memory map

LOAD /mnt/c/Ubuntu/gcc-arm-none/bin/../lib/gcc/arm-none-eabi/6.3.1/crti.o
LOAD /mnt/c/Ubuntu/gcc-arm-none/bin/../lib/gcc/arm-none-eabi/6.3.1/crtbegin.o
LOAD /mnt/c/Ubuntu/gcc-arm-none/bin/../lib/gcc/arm-none-eabi/6.3.1/../../../../arm-none-eabi/lib/crt0.o
LOAD build-MT7687Lite/py/mpstate.o
LOAD build-MT7687Lite/py/nlr.o
LOAD build-MT7687Lite/py/nlrx86.o
LOAD build-MT7687Lite/py/nlrx64.o
LOAD build-MT7687Lite/py/nlrthumb.o
LOAD build-MT7687Lite/py/nlrxtensa.o
LOAD build-MT7687Lite/py/nlrsetjmp.o
LOAD build-MT7687Lite/py/malloc.o
LOAD build-MT7687Lite/py/gc.o
LOAD build-MT7687Lite/py/pystack.o
LOAD build-MT7687Lite/py/qstr.o
LOAD build-MT7687Lite/py/vstr.o
LOAD build-MT7687Lite/py/mpprint.o
LOAD build-MT7687Lite/py/unicode.o
LOAD build-MT7687Lite/py/mpz.o
LOAD build-MT7687Lite/py/reader.o
LOAD build-MT7687Lite/py/lexer.o
LOAD build-MT7687Lite/py/parse.o
LOAD build-MT7687Lite/py/scope.o
LOAD build-MT7687Lite/py/compile.o
LOAD build-MT7687Lite/py/emitcommon.o
LOAD build-MT7687Lite/py/emitbc.o
LOAD build-MT7687Lite/py/asmbase.o
LOAD build-MT7687Lite/py/asmx64.o
LOAD build-MT7687Lite/py/emitnx64.o
LOAD build-MT7687Lite/py/asmx86.o
LOAD build-MT7687Lite/py/emitnx86.o
LOAD build-MT7687Lite/py/asmthumb.o
LOAD build-MT7687Lite/py/emitnthumb.o
LOAD build-MT7687Lite/py/emitinlinethumb.o
LOAD build-MT7687Lite/py/asmarm.o
LOAD build-MT7687Lite/py/emitnarm.o
LOAD build-MT7687Lite/py/asmxtensa.o
LOAD build-MT7687Lite/py/emitnxtensa.o
LOAD build-MT7687Lite/py/emitinlinextensa.o
LOAD build-MT7687Lite/py/formatfloat.o
LOAD build-MT7687Lite/py/parsenumbase.o
LOAD build-MT7687Lite/py/parsenum.o
LOAD build-MT7687Lite/py/emitglue.o
LOAD build-MT7687Lite/py/persistentcode.o
LOAD build-MT7687Lite/py/runtime.o
LOAD build-MT7687Lite/py/runtime_utils.o
LOAD build-MT7687Lite/py/scheduler.o
LOAD build-MT7687Lite/py/nativeglue.o
LOAD build-MT7687Lite/py/stackctrl.o
LOAD build-MT7687Lite/py/argcheck.o
LOAD build-MT7687Lite/py/warning.o
LOAD build-MT7687Lite/py/map.o
LOAD build-MT7687Lite/py/obj.o
LOAD build-MT7687Lite/py/objarray.o
LOAD build-MT7687Lite/py/objattrtuple.o
LOAD build-MT7687Lite/py/objbool.o
LOAD build-MT7687Lite/py/objboundmeth.o
LOAD build-MT7687Lite/py/objcell.o
LOAD build-MT7687Lite/py/objclosure.o
LOAD build-MT7687Lite/py/objcomplex.o
LOAD build-MT7687Lite/py/objdeque.o
LOAD build-MT7687Lite/py/objdict.o
LOAD build-MT7687Lite/py/objenumerate.o
LOAD build-MT7687Lite/py/objexcept.o
LOAD build-MT7687Lite/py/objfilter.o
LOAD build-MT7687Lite/py/objfloat.o
LOAD build-MT7687Lite/py/objfun.o
LOAD build-MT7687Lite/py/objgenerator.o
LOAD build-MT7687Lite/py/objgetitemiter.o
LOAD build-MT7687Lite/py/objint.o
LOAD build-MT7687Lite/py/objint_longlong.o
LOAD build-MT7687Lite/py/objint_mpz.o
LOAD build-MT7687Lite/py/objlist.o
LOAD build-MT7687Lite/py/objmap.o
LOAD build-MT7687Lite/py/objmodule.o
LOAD build-MT7687Lite/py/objobject.o
LOAD build-MT7687Lite/py/objpolyiter.o
LOAD build-MT7687Lite/py/objproperty.o
LOAD build-MT7687Lite/py/objnone.o
LOAD build-MT7687Lite/py/objnamedtuple.o
LOAD build-MT7687Lite/py/objrange.o
LOAD build-MT7687Lite/py/objreversed.o
LOAD build-MT7687Lite/py/objset.o
LOAD build-MT7687Lite/py/objsingleton.o
LOAD build-MT7687Lite/py/objslice.o
LOAD build-MT7687Lite/py/objstr.o
LOAD build-MT7687Lite/py/objstrunicode.o
LOAD build-MT7687Lite/py/objstringio.o
LOAD build-MT7687Lite/py/objtuple.o
LOAD build-MT7687Lite/py/objtype.o
LOAD build-MT7687Lite/py/objzip.o
LOAD build-MT7687Lite/py/opmethods.o
LOAD build-MT7687Lite/py/sequence.o
LOAD build-MT7687Lite/py/stream.o
LOAD build-MT7687Lite/py/binary.o
LOAD build-MT7687Lite/py/builtinimport.o
LOAD build-MT7687Lite/py/builtinevex.o
LOAD build-MT7687Lite/py/builtinhelp.o
LOAD build-MT7687Lite/py/modarray.o
LOAD build-MT7687Lite/py/modbuiltins.o
LOAD build-MT7687Lite/py/modcollections.o
LOAD build-MT7687Lite/py/modgc.o
LOAD build-MT7687Lite/py/modio.o
LOAD build-MT7687Lite/py/modmath.o
LOAD build-MT7687Lite/py/modcmath.o
LOAD build-MT7687Lite/py/modmicropython.o
LOAD build-MT7687Lite/py/modstruct.o
LOAD build-MT7687Lite/py/modsys.o
LOAD build-MT7687Lite/py/moduerrno.o
LOAD build-MT7687Lite/py/modthread.o
LOAD build-MT7687Lite/py/vm.o
LOAD build-MT7687Lite/py/bc.o
LOAD build-MT7687Lite/py/showbc.o
LOAD build-MT7687Lite/py/repl.o
LOAD build-MT7687Lite/py/smallint.o
LOAD build-MT7687Lite/py/frozenmod.o
LOAD build-MT7687Lite/extmod/moductypes.o
LOAD build-MT7687Lite/extmod/modujson.o
LOAD build-MT7687Lite/extmod/modure.o
LOAD build-MT7687Lite/extmod/moduzlib.o
LOAD build-MT7687Lite/extmod/moduheapq.o
LOAD build-MT7687Lite/extmod/modutimeq.o
LOAD build-MT7687Lite/extmod/moduhashlib.o
LOAD build-MT7687Lite/extmod/moducryptolib.o
LOAD build-MT7687Lite/extmod/modubinascii.o
LOAD build-MT7687Lite/extmod/virtpin.o
LOAD build-MT7687Lite/extmod/machine_mem.o
LOAD build-MT7687Lite/extmod/machine_pinbase.o
LOAD build-MT7687Lite/extmod/machine_signal.o
LOAD build-MT7687Lite/extmod/machine_pulse.o
LOAD build-MT7687Lite/extmod/machine_i2c.o
LOAD build-MT7687Lite/extmod/machine_spi.o
LOAD build-MT7687Lite/extmod/modussl_axtls.o
LOAD build-MT7687Lite/extmod/modussl_mbedtls.o
LOAD build-MT7687Lite/extmod/modurandom.o
LOAD build-MT7687Lite/extmod/moduselect.o
LOAD build-MT7687Lite/extmod/modwebsocket.o
LOAD build-MT7687Lite/extmod/modwebrepl.o
LOAD build-MT7687Lite/extmod/modframebuf.o
LOAD build-MT7687Lite/extmod/vfs.o
LOAD build-MT7687Lite/extmod/vfs_reader.o
LOAD build-MT7687Lite/extmod/vfs_posix.o
LOAD build-MT7687Lite/extmod/vfs_posix_file.o
LOAD build-MT7687Lite/extmod/vfs_fat.o
LOAD build-MT7687Lite/extmod/vfs_fat_diskio.o
LOAD build-MT7687Lite/extmod/vfs_fat_file.o
LOAD build-MT7687Lite/extmod/utime_mphal.o
LOAD build-MT7687Lite/extmod/uos_dupterm.o
LOAD build-MT7687Lite/lib/embed/abort_.o
LOAD build-MT7687Lite/lib/utils/printf.o
LOAD build-MT7687Lite/main.o
LOAD build-MT7687Lite/mphalport.o
LOAD build-MT7687Lite/mpthreadport.o
LOAD build-MT7687Lite/fatfs_port.o
LOAD build-MT7687Lite/chip/Source/system_MT7687.o
LOAD build-MT7687Lite/chip/Source/MT7687_GPIO.o
LOAD build-MT7687Lite/chip/Source/MT7687_UART.o
LOAD build-MT7687Lite/chip/Source/MT7687_TIMR.o
LOAD build-MT7687Lite/chip/Source/MT7687_PWM.o
LOAD build-MT7687Lite/chip/Source/MT7687_Flash.o
LOAD build-MT7687Lite/chip/Source/gcc/startup_MT7687.o
LOAD build-MT7687Lite/rtos/Source/croutine.o
LOAD build-MT7687Lite/rtos/Source/event_groups.o
LOAD build-MT7687Lite/rtos/Source/list.o
LOAD build-MT7687Lite/rtos/Source/queue.o
LOAD build-MT7687Lite/rtos/Source/tasks.o
LOAD build-MT7687Lite/rtos/Source/timers.o
LOAD build-MT7687Lite/rtos/Source/portable/ARM_CM4/port.o
LOAD build-MT7687Lite/rtos/Source/portable/MemMang/heap_4.o
LOAD build-MT7687Lite/mods/moduos.o
LOAD build-MT7687Lite/mods/modmachine.o
LOAD build-MT7687Lite/mods/modutime.o
LOAD build-MT7687Lite/mods/modubinascii.o
LOAD build-MT7687Lite/mods/pybuart.o
LOAD build-MT7687Lite/mods/pybflash.o
LOAD build-MT7687Lite/mods/pybpin.o
LOAD build-MT7687Lite/mods/pybtimer.o
LOAD build-MT7687Lite/mods/pybpwm.o
LOAD build-MT7687Lite/misc/fifo.o
LOAD build-MT7687Lite/misc/bufhelper.o
LOAD build-MT7687Lite/misc/gccollect.o
LOAD build-MT7687Lite/misc/mperror.o
LOAD build-MT7687Lite/misc/random.o
LOAD build-MT7687Lite/misc/mpirq.o
LOAD build-MT7687Lite/misc/gchelper.o
LOAD build-MT7687Lite/lib/oofatfs/ff.o
LOAD build-MT7687Lite/lib/oofatfs/option/unicode.o
LOAD build-MT7687Lite/lib/libc/string0.o
LOAD build-MT7687Lite/lib/mp-readline/readline.o
LOAD build-MT7687Lite/lib/netutils/netutils.o
LOAD build-MT7687Lite/lib/timeutils/timeutils.o
LOAD build-MT7687Lite/lib/utils/pyexec.o
LOAD build-MT7687Lite/lib/utils/interrupt_char.o
LOAD build-MT7687Lite/lib/utils/sys_stdio_mphal.o
LOAD build-MT7687Lite/pins.o
START GROUP
LOAD /mnt/c/Ubuntu/gcc-arm-none/bin/../lib/gcc/arm-none-eabi/6.3.1/libgcc.a
LOAD /mnt/c/Ubuntu/gcc-arm-none/bin/../lib/gcc/arm-none-eabi/6.3.1/../../../../arm-none-eabi/lib/libc.a
END GROUP
LOAD /mnt/c/Ubuntu/gcc-arm-none/bin/../lib/gcc/arm-none-eabi/6.3.1/crtend.o
LOAD /mnt/c/Ubuntu/gcc-arm-none/bin/../lib/gcc/arm-none-eabi/6.3.1/crtn.o
                0x0000000010079000                . = ORIGIN (XIP_CODE)

.text           0x0000000010079000    0x25ee0
 *(.rst_handler)
 .rst_handler   0x0000000010079000       0x84 build-MT7687Lite/chip/Source/gcc/startup_MT7687.o
                0x0000000010079000                Reset_Handler
 *(.pre_cache_init)
 .pre_cache_init
                0x0000000010079084       0x48 build-MT7687Lite/chip/Source/gcc/startup_MT7687.o
                0x0000000010079084                pre_cache_init
 *(.text)
 .text          0x00000000100790cc       0x3e build-MT7687Lite/chip/Source/gcc/startup_MT7687.o
                0x00000000100790cc                NMI_Handler
                0x00000000100790ce                HardFault_Handler
                0x00000000100790d0                MemManage_Handler
                0x00000000100790d2                BusFault_Handler
                0x00000000100790d4                UsageFault_Handler
                0x00000000100790d8                DebugMon_Handler
                0x00000000100790e0                DMA_Handler
                0x00000000100790e2                HIF_Handler
                0x00000000100790e4                I2C1_Handler
                0x00000000100790e6                I2C2_Handler
                0x00000000100790ea                CRYPTO_Handler
                0x00000000100790ec                SF_Handler
                0x00000000100790ee                EINT_Handler
                0x00000000100790f0                BTIF_Handler
                0x00000000100790f2                WDT_Handler
                0x00000000100790f4                SPIS_Handler
                0x00000000100790f6                N9_WDT_Handler
                0x00000000100790f8                ADC_Handler
                0x00000000100790fa                IRDA_TX_Handler
                0x00000000100790fc                IRDA_RX_Handler
                0x00000000100790fe                GPT3_Handler
                0x0000000010079100                AUDIO_Handler
                0x0000000010079102                N9_IRQ_Handler
                0x0000000010079106                SPIM_Handler
                0x0000000010079108                Default_Handler
 *fill*         0x000000001007910a        0x2 
 .text          0x000000001007910c       0x30 build-MT7687Lite/misc/gchelper.o
                0x000000001007910c                gc_helper_get_sp
                0x0000000010079110                gc_helper_get_regs_and_sp
 *(.text*)
 .text.nlr_push_tail
                0x000000001007913c       0x12 build-MT7687Lite/py/nlr.o
                0x000000001007913c                nlr_push_tail
 .text.nlr_pop  0x000000001007914e        0xe build-MT7687Lite/py/nlr.o
                0x000000001007914e                nlr_pop
 .text.nlr_push
                0x000000001007915c       0x24 build-MT7687Lite/py/nlrthumb.o
                0x000000001007915c                nlr_push
 .text.nlr_jump
                0x0000000010079180       0x3e build-MT7687Lite/py/nlrthumb.o
                0x0000000010079180                nlr_jump
 .text.m_malloc
                0x00000000100791be       0x16 build-MT7687Lite/py/malloc.o
                0x00000000100791be                m_malloc
 .text.m_malloc_maybe
                0x00000000100791d4        0x6 build-MT7687Lite/py/malloc.o
                0x00000000100791d4                m_malloc_maybe
 .text.m_malloc_with_finaliser
                0x00000000100791da       0x16 build-MT7687Lite/py/malloc.o
                0x00000000100791da                m_malloc_with_finaliser
 .text.m_malloc0
                0x00000000100791f0        0x4 build-MT7687Lite/py/malloc.o
                0x00000000100791f0                m_malloc0
 .text.m_realloc
                0x00000000100791f4       0x16 build-MT7687Lite/py/malloc.o
                0x00000000100791f4                m_realloc
 .text.m_realloc_maybe
                0x000000001007920a        0x4 build-MT7687Lite/py/malloc.o
                0x000000001007920a                m_realloc_maybe
 .text.m_free   0x000000001007920e        0x4 build-MT7687Lite/py/malloc.o
                0x000000001007920e                m_free
 *fill*         0x0000000010079212        0x2 
 .text.gc_mark_subtree
                0x0000000010079214       0xb4 build-MT7687Lite/py/gc.o
 .text.gc_free.part.0
                0x00000000100792c8       0xbc build-MT7687Lite/py/gc.o
 .text.gc_init  0x0000000010079384       0x94 build-MT7687Lite/py/gc.o
                0x0000000010079384                gc_init
 .text.gc_lock  0x0000000010079418       0x14 build-MT7687Lite/py/gc.o
                0x0000000010079418                gc_lock
 .text.gc_unlock
                0x000000001007942c       0x14 build-MT7687Lite/py/gc.o
                0x000000001007942c                gc_unlock
 .text.gc_is_locked
                0x0000000010079440       0x14 build-MT7687Lite/py/gc.o
                0x0000000010079440                gc_is_locked
 .text.gc_collect_start
                0x0000000010079454       0x7c build-MT7687Lite/py/gc.o
                0x0000000010079454                gc_collect_start
 .text.gc_collect_root
                0x00000000100794d0       0x74 build-MT7687Lite/py/gc.o
                0x00000000100794d0                gc_collect_root
 .text.gc_collect_end
                0x0000000010079544      0x148 build-MT7687Lite/py/gc.o
                0x0000000010079544                gc_collect_end
 .text.gc_info  0x000000001007968c       0xfc build-MT7687Lite/py/gc.o
                0x000000001007968c                gc_info
 .text.gc_alloc
                0x0000000010079788      0x1b4 build-MT7687Lite/py/gc.o
                0x0000000010079788                gc_alloc
 .text.gc_free  0x000000001007993c       0x14 build-MT7687Lite/py/gc.o
                0x000000001007993c                gc_free
 .text.gc_nbytes
                0x0000000010079950       0x68 build-MT7687Lite/py/gc.o
                0x0000000010079950                gc_nbytes
 .text.gc_realloc
                0x00000000100799b8      0x204 build-MT7687Lite/py/gc.o
                0x00000000100799b8                gc_realloc
 .text.gc_dump_info
                0x0000000010079bbc       0x40 build-MT7687Lite/py/gc.o
                0x0000000010079bbc                gc_dump_info
 .text.find_qstr
                0x0000000010079bfc       0x1c build-MT7687Lite/py/qstr.o
 .text.qstr_compute_hash
                0x0000000010079c18       0x20 build-MT7687Lite/py/qstr.o
                0x0000000010079c18                qstr_compute_hash
 .text.qstr_init
                0x0000000010079c38       0x1c build-MT7687Lite/py/qstr.o
                0x0000000010079c38                qstr_init
 .text.qstr_find_strn
                0x0000000010079c54       0x60 build-MT7687Lite/py/qstr.o
                0x0000000010079c54                qstr_find_strn
 .text.qstr_from_strn
                0x0000000010079cb4      0x124 build-MT7687Lite/py/qstr.o
                0x0000000010079cb4                qstr_from_strn
 .text.qstr_from_str
                0x0000000010079dd8       0x14 build-MT7687Lite/py/qstr.o
                0x0000000010079dd8                qstr_from_str
 .text.qstr_hash
                0x0000000010079dec        0xa build-MT7687Lite/py/qstr.o
                0x0000000010079dec                qstr_hash
 .text.qstr_len
                0x0000000010079df6        0xa build-MT7687Lite/py/qstr.o
                0x0000000010079df6                qstr_len
 .text.qstr_str
                0x0000000010079e00        0xa build-MT7687Lite/py/qstr.o
                0x0000000010079e00                qstr_str
 .text.qstr_data
                0x0000000010079e0a        0xe build-MT7687Lite/py/qstr.o
                0x0000000010079e0a                qstr_data
 .text.qstr_pool_info
                0x0000000010079e18       0x78 build-MT7687Lite/py/qstr.o
                0x0000000010079e18                qstr_pool_info
 .text.vstr_ensure_extra
                0x0000000010079e90       0x38 build-MT7687Lite/py/vstr.o
 .text.vstr_add_strn
                0x0000000010079ec8       0x24 build-MT7687Lite/py/vstr.o
                0x0000000010079ec8                vstr_add_strn
 .text.vstr_ins_blank_bytes.constprop.2
                0x0000000010079eec       0x2e build-MT7687Lite/py/vstr.o
 .text.vstr_init
                0x0000000010079f1a       0x22 build-MT7687Lite/py/vstr.o
                0x0000000010079f1a                vstr_init
 .text.vstr_init_len
                0x0000000010079f3c       0x10 build-MT7687Lite/py/vstr.o
                0x0000000010079f3c                vstr_init_len
 .text.vstr_init_fixed_buf
                0x0000000010079f4c       0x12 build-MT7687Lite/py/vstr.o
                0x0000000010079f4c                vstr_init_fixed_buf
 *fill*         0x0000000010079f5e        0x2 
 .text.vstr_init_print
                0x0000000010079f60       0x18 build-MT7687Lite/py/vstr.o
                0x0000000010079f60                vstr_init_print
 .text.vstr_clear
                0x0000000010079f78       0x16 build-MT7687Lite/py/vstr.o
                0x0000000010079f78                vstr_clear
 .text.vstr_new
                0x0000000010079f8e       0x16 build-MT7687Lite/py/vstr.o
                0x0000000010079f8e                vstr_new
 .text.vstr_free
                0x0000000010079fa4       0x1e build-MT7687Lite/py/vstr.o
                0x0000000010079fa4                vstr_free
 *fill*         0x0000000010079fc2        0x2 
 .text.vstr_extend
                0x0000000010079fc4       0x30 build-MT7687Lite/py/vstr.o
                0x0000000010079fc4                vstr_extend
 .text.vstr_add_len
                0x0000000010079ff4       0x16 build-MT7687Lite/py/vstr.o
                0x0000000010079ff4                vstr_add_len
 .text.vstr_null_terminated_str
                0x000000001007a00a       0x1e build-MT7687Lite/py/vstr.o
                0x000000001007a00a                vstr_null_terminated_str
 .text.vstr_add_byte
                0x000000001007a028        0xe build-MT7687Lite/py/vstr.o
                0x000000001007a028                vstr_add_byte
 *fill*         0x000000001007a036        0x2 
 .text.vstr_add_char
                0x000000001007a038       0xa4 build-MT7687Lite/py/vstr.o
                0x000000001007a038                vstr_add_char
 .text.vstr_add_str
                0x000000001007a0dc       0x1a build-MT7687Lite/py/vstr.o
                0x000000001007a0dc                vstr_add_str
 .text.vstr_ins_byte
                0x000000001007a0f6        0xc build-MT7687Lite/py/vstr.o
                0x000000001007a0f6                vstr_ins_byte
 .text.vstr_ins_char
                0x000000001007a102        0xc build-MT7687Lite/py/vstr.o
                0x000000001007a102                vstr_ins_char
 .text.vstr_cut_tail_bytes
                0x000000001007a10e        0xe build-MT7687Lite/py/vstr.o
                0x000000001007a10e                vstr_cut_tail_bytes
 .text.vstr_cut_out_bytes
                0x000000001007a11c       0x2e build-MT7687Lite/py/vstr.o
                0x000000001007a11c                vstr_cut_out_bytes
 .text.plat_print_strn
                0x000000001007a14a        0x8 build-MT7687Lite/py/mpprint.o
 .text.mp_print_str
                0x000000001007a152       0x1e build-MT7687Lite/py/mpprint.o
                0x000000001007a152                mp_print_str
 .text.mp_print_strn
                0x000000001007a170       0xb8 build-MT7687Lite/py/mpprint.o
                0x000000001007a170                mp_print_strn
 .text.mp_print_int
                0x000000001007a228       0xc2 build-MT7687Lite/py/mpprint.o
 *fill*         0x000000001007a2ea        0x2 
 .text.mp_print_mp_int
                0x000000001007a2ec      0x264 build-MT7687Lite/py/mpprint.o
                0x000000001007a2ec                mp_print_mp_int
 .text.mp_vprintf
                0x000000001007a550      0x268 build-MT7687Lite/py/mpprint.o
                0x000000001007a550                mp_vprintf
 .text.mp_printf
                0x000000001007a7b8       0x1a build-MT7687Lite/py/mpprint.o
                0x000000001007a7b8                mp_printf
 .text.utf8_get_char
                0x000000001007a7d2       0x32 build-MT7687Lite/py/unicode.o
                0x000000001007a7d2                utf8_get_char
 .text.utf8_next_char
                0x000000001007a804       0x12 build-MT7687Lite/py/unicode.o
                0x000000001007a804                utf8_next_char
 .text.utf8_ptr_to_index
                0x000000001007a816       0x1a build-MT7687Lite/py/unicode.o
                0x000000001007a816                utf8_ptr_to_index
 .text.utf8_charlen
                0x000000001007a830       0x20 build-MT7687Lite/py/unicode.o
                0x000000001007a830                utf8_charlen
 .text.unichar_isspace
                0x000000001007a850       0x14 build-MT7687Lite/py/unicode.o
                0x000000001007a850                unichar_isspace
 .text.unichar_isalpha
                0x000000001007a864       0x14 build-MT7687Lite/py/unicode.o
                0x000000001007a864                unichar_isalpha
 .text.unichar_isdigit
                0x000000001007a878       0x14 build-MT7687Lite/py/unicode.o
                0x000000001007a878                unichar_isdigit
 .text.unichar_isxdigit
                0x000000001007a88c       0x14 build-MT7687Lite/py/unicode.o
                0x000000001007a88c                unichar_isxdigit
 .text.unichar_isident
                0x000000001007a8a0       0x24 build-MT7687Lite/py/unicode.o
                0x000000001007a8a0                unichar_isident
 .text.unichar_isupper
                0x000000001007a8c4       0x14 build-MT7687Lite/py/unicode.o
                0x000000001007a8c4                unichar_isupper
 .text.unichar_islower
                0x000000001007a8d8       0x14 build-MT7687Lite/py/unicode.o
                0x000000001007a8d8                unichar_islower
 .text.unichar_tolower
                0x000000001007a8ec       0x10 build-MT7687Lite/py/unicode.o
                0x000000001007a8ec                unichar_tolower
 .text.unichar_toupper
                0x000000001007a8fc       0x10 build-MT7687Lite/py/unicode.o
                0x000000001007a8fc                unichar_toupper
 .text.unichar_xdigit_value
                0x000000001007a90c        0xe build-MT7687Lite/py/unicode.o
                0x000000001007a90c                unichar_xdigit_value
 .text.utf8_check
                0x000000001007a91a       0x48 build-MT7687Lite/py/unicode.o
                0x000000001007a91a                utf8_check
 .text.mpn_remove_trailing_zeros
                0x000000001007a962       0x18 build-MT7687Lite/py/mpz.o
 .text.mpn_shr  0x000000001007a97a       0x3e build-MT7687Lite/py/mpz.o
 .text.mpn_add  0x000000001007a9b8       0x54 build-MT7687Lite/py/mpz.o
 .text.mpn_sub  0x000000001007aa0c       0x4c build-MT7687Lite/py/mpz.o
 .text.mpz_free
                0x000000001007aa58       0x18 build-MT7687Lite/py/mpz.o
 .text.mpn_cmp.part.1
                0x000000001007aa70       0x2c build-MT7687Lite/py/mpz.o
 .text.mpz_need_dig
                0x000000001007aa9c       0x4c build-MT7687Lite/py/mpz.o
 .text.mpz_clone
                0x000000001007aae8       0x68 build-MT7687Lite/py/mpz.o
 .text.mpz_set_from_int.part.4
                0x000000001007ab50       0x3c build-MT7687Lite/py/mpz.o
 .text.mpz_init_zero
                0x000000001007ab8c       0x1c build-MT7687Lite/py/mpz.o
                0x000000001007ab8c                mpz_init_zero
 .text.mpz_deinit
                0x000000001007aba8       0x10 build-MT7687Lite/py/mpz.o
                0x000000001007aba8                mpz_deinit
 .text.mpz_set  0x000000001007abb8       0x2a build-MT7687Lite/py/mpz.o
                0x000000001007abb8                mpz_set
 .text.mpz_set_from_int
                0x000000001007abe2        0xc build-MT7687Lite/py/mpz.o
                0x000000001007abe2                mpz_set_from_int
 .text.mpz_init_from_int
                0x000000001007abee        0xe build-MT7687Lite/py/mpz.o
                0x000000001007abee                mpz_init_from_int
 .text.mpz_init_fixed_from_int
                0x000000001007abfc       0x24 build-MT7687Lite/py/mpz.o
                0x000000001007abfc                mpz_init_fixed_from_int
 .text.mpz_set_from_ll
                0x000000001007ac20       0x58 build-MT7687Lite/py/mpz.o
                0x000000001007ac20                mpz_set_from_ll
 .text.mpz_set_from_str
                0x000000001007ac78       0xbc build-MT7687Lite/py/mpz.o
                0x000000001007ac78                mpz_set_from_str
 .text.mpz_set_from_bytes
                0x000000001007ad34       0x68 build-MT7687Lite/py/mpz.o
                0x000000001007ad34                mpz_set_from_bytes
 .text.mpz_cmp  0x000000001007ad9c       0x40 build-MT7687Lite/py/mpz.o
                0x000000001007ad9c                mpz_cmp
 .text.mpz_abs_inpl
                0x000000001007addc       0x16 build-MT7687Lite/py/mpz.o
                0x000000001007addc                mpz_abs_inpl
 .text.mpz_neg_inpl
                0x000000001007adf2       0x1e build-MT7687Lite/py/mpz.o
                0x000000001007adf2                mpz_neg_inpl
 .text.mpz_not_inpl
                0x000000001007ae10       0x72 build-MT7687Lite/py/mpz.o
                0x000000001007ae10                mpz_not_inpl
 .text.mpz_shl_inpl
                0x000000001007ae82       0xc6 build-MT7687Lite/py/mpz.o
                0x000000001007ae82                mpz_shl_inpl
 .text.mpz_shr_inpl
                0x000000001007af48       0xaa build-MT7687Lite/py/mpz.o
                0x000000001007af48                mpz_shr_inpl
 .text.mpz_add_inpl
                0x000000001007aff2       0x70 build-MT7687Lite/py/mpz.o
                0x000000001007aff2                mpz_add_inpl
 .text.mpz_sub_inpl
                0x000000001007b062       0x80 build-MT7687Lite/py/mpz.o
                0x000000001007b062                mpz_sub_inpl
 .text.mpz_and_inpl
                0x000000001007b0e2       0xf6 build-MT7687Lite/py/mpz.o
                0x000000001007b0e2                mpz_and_inpl
 .text.mpz_or_inpl
                0x000000001007b1d8      0x104 build-MT7687Lite/py/mpz.o
                0x000000001007b1d8                mpz_or_inpl
 .text.mpz_xor_inpl
                0x000000001007b2dc       0xd8 build-MT7687Lite/py/mpz.o
                0x000000001007b2dc                mpz_xor_inpl
 .text.mpz_mul_inpl
                0x000000001007b3b4       0xfc build-MT7687Lite/py/mpz.o
                0x000000001007b3b4                mpz_mul_inpl
 .text.mpz_pow_inpl
                0x000000001007b4b0       0x7e build-MT7687Lite/py/mpz.o
                0x000000001007b4b0                mpz_pow_inpl
 *fill*         0x000000001007b52e        0x2 
 .text.mpz_divmod_inpl
                0x000000001007b530      0x2c0 build-MT7687Lite/py/mpz.o
                0x000000001007b530                mpz_divmod_inpl
 .text.mpz_hash
                0x000000001007b7f0       0x26 build-MT7687Lite/py/mpz.o
                0x000000001007b7f0                mpz_hash
 .text.mpz_as_int_checked
                0x000000001007b816       0x32 build-MT7687Lite/py/mpz.o
                0x000000001007b816                mpz_as_int_checked
 .text.mpz_as_bytes
                0x000000001007b848       0x78 build-MT7687Lite/py/mpz.o
                0x000000001007b848                mpz_as_bytes
 .text.mpz_as_str_inpl
                0x000000001007b8c0      0x144 build-MT7687Lite/py/mpz.o
                0x000000001007b8c0                mpz_as_str_inpl
 .text.mp_reader_mem_readbyte
                0x000000001007ba04       0x14 build-MT7687Lite/py/reader.o
 .text.mp_reader_mem_close
                0x000000001007ba18       0x18 build-MT7687Lite/py/reader.o
 .text.mp_reader_new_mem
                0x000000001007ba30       0x30 build-MT7687Lite/py/reader.o
                0x000000001007ba30                mp_reader_new_mem
 .text.is_string_or_bytes
                0x000000001007ba60       0x50 build-MT7687Lite/py/lexer.o
 .text.next_char
                0x000000001007bab0       0x60 build-MT7687Lite/py/lexer.o
 .text.skip_whitespace
                0x000000001007bb10       0x60 build-MT7687Lite/py/lexer.o
 .text.mp_lexer_to_next
                0x000000001007bb70      0x57c build-MT7687Lite/py/lexer.o
                0x000000001007bb70                mp_lexer_to_next
 .text.mp_lexer_new
                0x000000001007c0ec       0x7e build-MT7687Lite/py/lexer.o
                0x000000001007c0ec                mp_lexer_new
 .text.mp_lexer_new_from_str_len
                0x000000001007c16a       0x1c build-MT7687Lite/py/lexer.o
                0x000000001007c16a                mp_lexer_new_from_str_len
 .text.mp_lexer_new_from_file
                0x000000001007c186       0x22 build-MT7687Lite/py/lexer.o
                0x000000001007c186                mp_lexer_new_from_file
 .text.mp_lexer_free
                0x000000001007c1a8       0x26 build-MT7687Lite/py/lexer.o
                0x000000001007c1a8                mp_lexer_free
 .text.parser_alloc
                0x000000001007c1ce       0x66 build-MT7687Lite/py/parse.o
 .text.push_result_node
                0x000000001007c234       0x2e build-MT7687Lite/py/parse.o
 .text.push_rule
                0x000000001007c262       0x42 build-MT7687Lite/py/parse.o
 .text.peek_result
                0x000000001007c2a4       0x34 build-MT7687Lite/py/parse.o
 .text.pop_result
                0x000000001007c2d8       0x2c build-MT7687Lite/py/parse.o
 .text.push_rule_from_arg
                0x000000001007c304       0x38 build-MT7687Lite/py/parse.o
 .text.push_result_token
                0x000000001007c33c       0xe0 build-MT7687Lite/py/parse.o
 .text.mp_parse_node_is_const_false
                0x000000001007c41c       0x1c build-MT7687Lite/py/parse.o
                0x000000001007c41c                mp_parse_node_is_const_false
 .text.mp_parse_node_is_const_true
                0x000000001007c438       0x1c build-MT7687Lite/py/parse.o
                0x000000001007c438                mp_parse_node_is_const_true
 .text.mp_parse_node_get_int_maybe
                0x000000001007c454       0x44 build-MT7687Lite/py/parse.o
                0x000000001007c454                mp_parse_node_get_int_maybe
 .text.push_result_rule
                0x000000001007c498      0x3fc build-MT7687Lite/py/parse.o
 .text.mp_parse_node_extract_list
                0x000000001007c894       0x26 build-MT7687Lite/py/parse.o
                0x000000001007c894                mp_parse_node_extract_list
 *fill*         0x000000001007c8ba        0x2 
 .text.mp_parse
                0x000000001007c8bc      0x434 build-MT7687Lite/py/parse.o
                0x000000001007c8bc                mp_parse
 .text.mp_parse_tree_clear
                0x000000001007ccf0       0x12 build-MT7687Lite/py/parse.o
                0x000000001007ccf0                mp_parse_tree_clear
 *fill*         0x000000001007cd02        0x2 
 .text.scope_new
                0x000000001007cd04       0x6c build-MT7687Lite/py/scope.o
                0x000000001007cd04                scope_new
 .text.scope_free
                0x000000001007cd70       0x14 build-MT7687Lite/py/scope.o
                0x000000001007cd70                scope_free
 .text.scope_find
                0x000000001007cd84       0x20 build-MT7687Lite/py/scope.o
                0x000000001007cd84                scope_find
 .text.scope_find_or_add_id
                0x000000001007cda4       0x4a build-MT7687Lite/py/scope.o
                0x000000001007cda4                scope_find_or_add_id
 .text.scope_find_global
                0x000000001007cdee        0xc build-MT7687Lite/py/scope.o
                0x000000001007cdee                scope_find_global
 *fill*         0x000000001007cdfa        0x2 
 .text.scope_find_local_and_close_over
                0x000000001007cdfc       0x8c build-MT7687Lite/py/scope.o
                0x000000001007cdfc                scope_find_local_and_close_over
 .text.compile_increase_except_level
                0x000000001007ce88       0x14 build-MT7687Lite/py/compile.o
 .text.apply_to_single_or_list
                0x000000001007ce9c       0x40 build-MT7687Lite/py/compile.o
 .text.compile_del_stmt
                0x000000001007cedc       0x10 build-MT7687Lite/py/compile.o
 .text.compile_import_name
                0x000000001007ceec       0x10 build-MT7687Lite/py/compile.o
 .text.scope_new_and_link
                0x000000001007cefc       0x2a build-MT7687Lite/py/compile.o
 .text.compile_trailer_period
                0x000000001007cf26        0xc build-MT7687Lite/py/compile.o
 *fill*         0x000000001007cf32        0x2 
 .text.compile_load_id
                0x000000001007cf34       0x1c build-MT7687Lite/py/compile.o
 .text.compile_store_id
                0x000000001007cf50       0x1c build-MT7687Lite/py/compile.o
 .text.compile_delete_id
                0x000000001007cf6c       0x1c build-MT7687Lite/py/compile.o
 .text.compile_const_object
                0x000000001007cf88        0x8 build-MT7687Lite/py/compile.o
 .text.close_over_variables_etc
                0x000000001007cf90       0xd4 build-MT7687Lite/py/compile.o
 .text.compile_funcdef_lambdef
                0x000000001007d064       0x58 build-MT7687Lite/py/compile.o
 .text.compile_lambdef
                0x000000001007d0bc       0x2a build-MT7687Lite/py/compile.o
 .text.compile_funcdef_helper
                0x000000001007d0e6       0x2a build-MT7687Lite/py/compile.o
 .text.compile_funcdef
                0x000000001007d110       0x18 build-MT7687Lite/py/compile.o
 .text.compile_error_set_line.isra.1
                0x000000001007d128       0x10 build-MT7687Lite/py/compile.o
 .text.compile_decrease_except_level.isra.5
                0x000000001007d138       0x24 build-MT7687Lite/py/compile.o
 .text.compile_syntax_error
                0x000000001007d15c       0x28 build-MT7687Lite/py/compile.o
 .text.compile_scope_func_lambda_param
                0x000000001007d184       0xf8 build-MT7687Lite/py/compile.o
 .text.compile_scope_lambda_param
                0x000000001007d27c       0x14 build-MT7687Lite/py/compile.o
 .text.compile_scope_func_param
                0x000000001007d290       0x14 build-MT7687Lite/py/compile.o
 .text.compile_star_expr
                0x000000001007d2a4        0xc build-MT7687Lite/py/compile.o
 .text.compile_node
                0x000000001007d2b0       0xb4 build-MT7687Lite/py/compile.o
 .text.c_assign
                0x000000001007d364      0x204 build-MT7687Lite/py/compile.o
 .text.c_assign_tuple
                0x000000001007d568       0xc8 build-MT7687Lite/py/compile.o
 .text.c_if_cond
                0x000000001007d630      0x124 build-MT7687Lite/py/compile.o
 .text.compile_scope_comp_iter
                0x000000001007d754       0xcc build-MT7687Lite/py/compile.o
 .text.compile_scope
                0x000000001007d820      0x2d4 build-MT7687Lite/py/compile.o
 .text.compile_dictorsetmaker_item
                0x000000001007daf4       0x18 build-MT7687Lite/py/compile.o
 .text.compile_subscript
                0x000000001007db0c       0xd0 build-MT7687Lite/py/compile.o
 .text.compile_trailer_bracket
                0x000000001007dbdc       0x16 build-MT7687Lite/py/compile.o
 .text.c_tuple  0x000000001007dbf2       0x40 build-MT7687Lite/py/compile.o
 .text.compile_generic_tuple
                0x000000001007dc32        0x8 build-MT7687Lite/py/compile.o
 .text.compile_while_stmt
                0x000000001007dc3a       0x8a build-MT7687Lite/py/compile.o
 .text.compile_yield_stmt
                0x000000001007dcc4       0x14 build-MT7687Lite/py/compile.o
 .text.c_del_stmt
                0x000000001007dcd8      0x164 build-MT7687Lite/py/compile.o
 .text.compile_generic_all_nodes
                0x000000001007de3c       0x3e build-MT7687Lite/py/compile.o
 .text.compile_power
                0x000000001007de7a       0x14 build-MT7687Lite/py/compile.o
 *fill*         0x000000001007de8e        0x2 
 .text.compile_if_stmt
                0x000000001007de90      0x100 build-MT7687Lite/py/compile.o
 .text.compile_comprehension
                0x000000001007df90       0x88 build-MT7687Lite/py/compile.o
 .text.compile_atom_paren
                0x000000001007e018       0x84 build-MT7687Lite/py/compile.o
 .text.compile_trailer_paren_helper
                0x000000001007e09c      0x140 build-MT7687Lite/py/compile.o
 .text.compile_classdef_helper
                0x000000001007e1dc       0x50 build-MT7687Lite/py/compile.o
 .text.compile_classdef
                0x000000001007e22c       0x18 build-MT7687Lite/py/compile.o
 .text.compile_trailer_paren
                0x000000001007e244        0xa build-MT7687Lite/py/compile.o
 *fill*         0x000000001007e24e        0x2 
 .text.compile_atom_bracket
                0x000000001007e250       0xa0 build-MT7687Lite/py/compile.o
 .text.compile_decorated
                0x000000001007e2f0      0x130 build-MT7687Lite/py/compile.o
 .text.compile_atom_brace
                0x000000001007e420      0x148 build-MT7687Lite/py/compile.o
 .text.compile_funcdef_lambdef_param
                0x000000001007e568       0xdc build-MT7687Lite/py/compile.o
 .text.compile_atom_expr_normal
                0x000000001007e644      0x128 build-MT7687Lite/py/compile.o
 .text.compile_term
                0x000000001007e76c       0x84 build-MT7687Lite/py/compile.o
 .text.compile_binary_op
                0x000000001007e7f0       0x3c build-MT7687Lite/py/compile.o
 .text.compile_expr_stmt
                0x000000001007e82c      0x17c build-MT7687Lite/py/compile.o
 .text.compile_not_test_2
                0x000000001007e9a8       0x16 build-MT7687Lite/py/compile.o
 .text.compile_or_and_test
                0x000000001007e9be       0x56 build-MT7687Lite/py/compile.o
 .text.compile_comparison
                0x000000001007ea14      0x104 build-MT7687Lite/py/compile.o
 .text.compile_test_if_expr
                0x000000001007eb18       0x7c build-MT7687Lite/py/compile.o
 .text.compile_for_stmt
                0x000000001007eb94      0x2a4 build-MT7687Lite/py/compile.o
 .text.compile_with_stmt_helper
                0x000000001007ee38       0x90 build-MT7687Lite/py/compile.o
 .text.compile_try_except
                0x000000001007eec8      0x1dc build-MT7687Lite/py/compile.o
 .text.compile_try_finally
                0x000000001007f0a4       0xac build-MT7687Lite/py/compile.o
 .text.compile_try_stmt
                0x000000001007f150       0x90 build-MT7687Lite/py/compile.o
 .text.compile_yield_expr
                0x000000001007f1e0       0x6c build-MT7687Lite/py/compile.o
 .text.compile_return_stmt
                0x000000001007f24c       0x38 build-MT7687Lite/py/compile.o
 .text.compile_factor_2
                0x000000001007f284       0x4c build-MT7687Lite/py/compile.o
 .text.compile_with_stmt
                0x000000001007f2d0       0x40 build-MT7687Lite/py/compile.o
 .text.compile_assert_stmt
                0x000000001007f310       0x58 build-MT7687Lite/py/compile.o
 .text.compile_raise_stmt
                0x000000001007f368       0x3c build-MT7687Lite/py/compile.o
 .text.compile_global_nonlocal_stmt
                0x000000001007f3a4       0xc0 build-MT7687Lite/py/compile.o
 .text.do_import_name.isra.18
                0x000000001007f464      0x134 build-MT7687Lite/py/compile.o
 .text.compile_import_from
                0x000000001007f598      0x164 build-MT7687Lite/py/compile.o
 .text.compile_dotted_as_name
                0x000000001007f6fc       0x30 build-MT7687Lite/py/compile.o
 .text.compile_break_cont_stmt
                0x000000001007f72c       0x58 build-MT7687Lite/py/compile.o
 .text.mp_compile
                0x000000001007f784      0x288 build-MT7687Lite/py/compile.o
                0x000000001007f784                mp_compile
 .text.mp_emit_common_get_id_for_load
                0x000000001007fa0c       0x22 build-MT7687Lite/py/emitcommon.o
                0x000000001007fa0c                mp_emit_common_get_id_for_load
 .text.mp_emit_common_get_id_for_modification
                0x000000001007fa2e       0x30 build-MT7687Lite/py/emitcommon.o
                0x000000001007fa2e                mp_emit_common_get_id_for_modification
 *fill*         0x000000001007fa5e        0x2 
 .text.mp_emit_common_id_op
                0x000000001007fa60       0x6c build-MT7687Lite/py/emitcommon.o
                0x000000001007fa60                mp_emit_common_id_op
 .text.emit_write_uint
                0x000000001007facc       0x3e build-MT7687Lite/py/emitbc.o
 *fill*         0x000000001007fb0a        0x2 
 .text.emit_get_cur_to_write_code_info
                0x000000001007fb0c       0x3c build-MT7687Lite/py/emitbc.o
 .text.emit_write_code_info_byte
                0x000000001007fb48        0xe build-MT7687Lite/py/emitbc.o
 *fill*         0x000000001007fb56        0x2 
 .text.emit_write_code_info_qstr
                0x000000001007fb58       0x30 build-MT7687Lite/py/emitbc.o
 .text.emit_get_cur_to_write_bytecode
                0x000000001007fb88       0x40 build-MT7687Lite/py/emitbc.o
 .text.emit_write_bytecode_byte
                0x000000001007fbc8        0xe build-MT7687Lite/py/emitbc.o
 *fill*         0x000000001007fbd6        0x2 
 .text.emit_write_bytecode_byte_uint
                0x000000001007fbd8       0x1c build-MT7687Lite/py/emitbc.o
 .text.emit_write_bytecode_byte_raw_code
                0x000000001007fbf4       0x2a build-MT7687Lite/py/emitbc.o
 .text.mp_emit_bc_delete_local
                0x000000001007fc1e        0x8 build-MT7687Lite/py/emitbc.o
                0x000000001007fc1e                mp_emit_bc_delete_local
 .text.emit_write_bytecode_byte_signed_label
                0x000000001007fc26       0x32 build-MT7687Lite/py/emitbc.o
 .text.emit_write_bytecode_byte_unsigned_label
                0x000000001007fc58       0x36 build-MT7687Lite/py/emitbc.o
 *fill*         0x000000001007fc8e        0x2 
 .text.emit_write_bytecode_byte_qstr
                0x000000001007fc90       0x34 build-MT7687Lite/py/emitbc.o
 .text.emit_write_bytecode_byte_obj.constprop.8
                0x000000001007fcc4       0x28 build-MT7687Lite/py/emitbc.o
 .text.emit_bc_new
                0x000000001007fcec        0x6 build-MT7687Lite/py/emitbc.o
                0x000000001007fcec                emit_bc_new
 .text.emit_bc_set_max_num_labels
                0x000000001007fcf2       0x10 build-MT7687Lite/py/emitbc.o
                0x000000001007fcf2                emit_bc_set_max_num_labels
 .text.emit_bc_free
                0x000000001007fd02       0x14 build-MT7687Lite/py/emitbc.o
                0x000000001007fd02                emit_bc_free
 *fill*         0x000000001007fd16        0x2 
 .text.mp_emit_bc_start_pass
                0x000000001007fd18      0x13c build-MT7687Lite/py/emitbc.o
                0x000000001007fd18                mp_emit_bc_start_pass
 .text.mp_emit_bc_end_pass
                0x000000001007fe54       0x94 build-MT7687Lite/py/emitbc.o
                0x000000001007fe54                mp_emit_bc_end_pass
 .text.mp_emit_bc_last_emit_was_return_value
                0x000000001007fee8        0xa build-MT7687Lite/py/emitbc.o
                0x000000001007fee8                mp_emit_bc_last_emit_was_return_value
 *fill*         0x000000001007fef2        0x2 
 .text.mp_emit_bc_adjust_stack_size
                0x000000001007fef4       0x3c build-MT7687Lite/py/emitbc.o
                0x000000001007fef4                mp_emit_bc_adjust_stack_size
 .text.mp_emit_bc_load_local
                0x000000001007ff30       0x36 build-MT7687Lite/py/emitbc.o
                0x000000001007ff30                mp_emit_bc_load_local
 .text.mp_emit_bc_load_global
                0x000000001007ff66       0x20 build-MT7687Lite/py/emitbc.o
                0x000000001007ff66                mp_emit_bc_load_global
 .text.mp_emit_bc_store_local
                0x000000001007ff86       0x38 build-MT7687Lite/py/emitbc.o
                0x000000001007ff86                mp_emit_bc_store_local
 .text.mp_emit_bc_store_global
                0x000000001007ffbe       0x22 build-MT7687Lite/py/emitbc.o
                0x000000001007ffbe                mp_emit_bc_store_global
 .text.mp_emit_bc_delete_global
                0x000000001007ffe0       0x20 build-MT7687Lite/py/emitbc.o
                0x000000001007ffe0                mp_emit_bc_delete_global
 .text.emit_bc_call_function_method_helper
                0x0000000010080000       0x3a build-MT7687Lite/py/emitbc.o
 *fill*         0x000000001008003a        0x2 
 .text.mp_emit_bc_set_source_line
                0x000000001008003c       0xa4 build-MT7687Lite/py/emitbc.o
                0x000000001008003c                mp_emit_bc_set_source_line
 .text.mp_emit_bc_label_assign
                0x00000000100800e0       0x6c build-MT7687Lite/py/emitbc.o
                0x00000000100800e0                mp_emit_bc_label_assign
 .text.mp_emit_bc_import
                0x000000001008014c       0x3c build-MT7687Lite/py/emitbc.o
                0x000000001008014c                mp_emit_bc_import
 .text.mp_emit_bc_load_const_tok
                0x0000000010080188       0x5c build-MT7687Lite/py/emitbc.o
                0x0000000010080188                mp_emit_bc_load_const_tok
 .text.mp_emit_bc_load_const_small_int
                0x00000000100801e4       0x90 build-MT7687Lite/py/emitbc.o
                0x00000000100801e4                mp_emit_bc_load_const_small_int
 .text.mp_emit_bc_load_const_str
                0x0000000010080274       0x1a build-MT7687Lite/py/emitbc.o
                0x0000000010080274                mp_emit_bc_load_const_str
 .text.mp_emit_bc_load_const_obj
                0x000000001008028e       0x18 build-MT7687Lite/py/emitbc.o
                0x000000001008028e                mp_emit_bc_load_const_obj
 .text.mp_emit_bc_load_null
                0x00000000100802a6       0x16 build-MT7687Lite/py/emitbc.o
                0x00000000100802a6                mp_emit_bc_load_null
 .text.mp_emit_bc_load_method
                0x00000000100802bc       0x26 build-MT7687Lite/py/emitbc.o
                0x00000000100802bc                mp_emit_bc_load_method
 .text.mp_emit_bc_load_build_class
                0x00000000100802e2       0x16 build-MT7687Lite/py/emitbc.o
                0x00000000100802e2                mp_emit_bc_load_build_class
 .text.mp_emit_bc_dup_top
                0x00000000100802f8       0x16 build-MT7687Lite/py/emitbc.o
                0x00000000100802f8                mp_emit_bc_dup_top
 .text.mp_emit_bc_dup_top_two
                0x000000001008030e       0x16 build-MT7687Lite/py/emitbc.o
                0x000000001008030e                mp_emit_bc_dup_top_two
 .text.mp_emit_bc_pop_top
                0x0000000010080324       0x18 build-MT7687Lite/py/emitbc.o
                0x0000000010080324                mp_emit_bc_pop_top
 .text.mp_emit_bc_rot_two
                0x000000001008033c       0x16 build-MT7687Lite/py/emitbc.o
                0x000000001008033c                mp_emit_bc_rot_two
 .text.mp_emit_bc_attr
                0x0000000010080352       0x3a build-MT7687Lite/py/emitbc.o
                0x0000000010080352                mp_emit_bc_attr
 .text.mp_emit_bc_rot_three
                0x000000001008038c       0x16 build-MT7687Lite/py/emitbc.o
                0x000000001008038c                mp_emit_bc_rot_three
 .text.mp_emit_bc_subscr
                0x00000000100803a2       0x36 build-MT7687Lite/py/emitbc.o
                0x00000000100803a2                mp_emit_bc_subscr
 .text.mp_emit_bc_jump
                0x00000000100803d8       0x1a build-MT7687Lite/py/emitbc.o
                0x00000000100803d8                mp_emit_bc_jump
 .text.mp_emit_bc_pop_jump_if
                0x00000000100803f2       0x24 build-MT7687Lite/py/emitbc.o
                0x00000000100803f2                mp_emit_bc_pop_jump_if
 .text.mp_emit_bc_jump_if_or_pop
                0x0000000010080416       0x24 build-MT7687Lite/py/emitbc.o
                0x0000000010080416                mp_emit_bc_jump_if_or_pop
 .text.mp_emit_bc_unwind_jump
                0x000000001008043a       0x66 build-MT7687Lite/py/emitbc.o
                0x000000001008043a                mp_emit_bc_unwind_jump
 .text.mp_emit_bc_setup_block
                0x00000000100804a0       0x26 build-MT7687Lite/py/emitbc.o
                0x00000000100804a0                mp_emit_bc_setup_block
 .text.mp_emit_bc_end_finally
                0x00000000100804c6       0x18 build-MT7687Lite/py/emitbc.o
                0x00000000100804c6                mp_emit_bc_end_finally
 .text.mp_emit_bc_get_iter
                0x00000000100804de       0x24 build-MT7687Lite/py/emitbc.o
                0x00000000100804de                mp_emit_bc_get_iter
 .text.mp_emit_bc_for_iter
                0x0000000010080502       0x1a build-MT7687Lite/py/emitbc.o
                0x0000000010080502                mp_emit_bc_for_iter
 .text.mp_emit_bc_for_iter_end
                0x000000001008051c        0x8 build-MT7687Lite/py/emitbc.o
                0x000000001008051c                mp_emit_bc_for_iter_end
 .text.mp_emit_bc_pop_block
                0x0000000010080524       0x16 build-MT7687Lite/py/emitbc.o
                0x0000000010080524                mp_emit_bc_pop_block
 .text.mp_emit_bc_with_cleanup
                0x000000001008053a       0x38 build-MT7687Lite/py/emitbc.o
                0x000000001008053a                mp_emit_bc_with_cleanup
 .text.mp_emit_bc_pop_except
                0x0000000010080572       0x16 build-MT7687Lite/py/emitbc.o
                0x0000000010080572                mp_emit_bc_pop_except
 .text.mp_emit_bc_unary_op
                0x0000000010080588       0x1c build-MT7687Lite/py/emitbc.o
                0x0000000010080588                mp_emit_bc_unary_op
 .text.mp_emit_bc_binary_op
                0x00000000100805a4       0x4a build-MT7687Lite/py/emitbc.o
                0x00000000100805a4                mp_emit_bc_binary_op
 .text.mp_emit_bc_build
                0x00000000100805ee       0x28 build-MT7687Lite/py/emitbc.o
                0x00000000100805ee                mp_emit_bc_build
 .text.mp_emit_bc_store_map
                0x0000000010080616       0x18 build-MT7687Lite/py/emitbc.o
                0x0000000010080616                mp_emit_bc_store_map
 .text.mp_emit_bc_store_comp
                0x000000001008062e       0x36 build-MT7687Lite/py/emitbc.o
                0x000000001008062e                mp_emit_bc_store_comp
 .text.mp_emit_bc_unpack_sequence
                0x0000000010080664       0x1a build-MT7687Lite/py/emitbc.o
                0x0000000010080664                mp_emit_bc_unpack_sequence
 .text.mp_emit_bc_unpack_ex
                0x000000001008067e       0x1e build-MT7687Lite/py/emitbc.o
                0x000000001008067e                mp_emit_bc_unpack_ex
 .text.mp_emit_bc_make_function
                0x000000001008069c       0x2e build-MT7687Lite/py/emitbc.o
                0x000000001008069c                mp_emit_bc_make_function
 *fill*         0x00000000100806ca        0x2 
 .text.mp_emit_bc_make_closure
                0x00000000100806cc       0x58 build-MT7687Lite/py/emitbc.o
                0x00000000100806cc                mp_emit_bc_make_closure
 .text.mp_emit_bc_call_function
                0x0000000010080724       0x16 build-MT7687Lite/py/emitbc.o
                0x0000000010080724                mp_emit_bc_call_function
 .text.mp_emit_bc_call_method
                0x000000001008073a       0x18 build-MT7687Lite/py/emitbc.o
                0x000000001008073a                mp_emit_bc_call_method
 .text.mp_emit_bc_return_value
                0x0000000010080752       0x1c build-MT7687Lite/py/emitbc.o
                0x0000000010080752                mp_emit_bc_return_value
 *fill*         0x000000001008076e        0x2 
 .text.mp_emit_bc_raise_varargs
                0x0000000010080770       0x3c build-MT7687Lite/py/emitbc.o
                0x0000000010080770                mp_emit_bc_raise_varargs
 .text.mp_emit_bc_yield
                0x00000000100807ac       0x26 build-MT7687Lite/py/emitbc.o
                0x00000000100807ac                mp_emit_bc_yield
 .text.mp_emit_bc_start_except_handler
                0x00000000100807d2        0x6 build-MT7687Lite/py/emitbc.o
                0x00000000100807d2                mp_emit_bc_start_except_handler
 .text.mp_emit_bc_end_except_handler
                0x00000000100807d8        0x8 build-MT7687Lite/py/emitbc.o
                0x00000000100807d8                mp_emit_bc_end_except_handler
 .text.mp_parse_num_base
                0x00000000100807e0       0x6e build-MT7687Lite/py/parsenumbase.o
                0x00000000100807e0                mp_parse_num_base
 *fill*         0x000000001008084e        0x2 
 .text.raise_exc
                0x0000000010080850       0x20 build-MT7687Lite/py/parsenum.o
 .text.mp_parse_num_integer
                0x0000000010080870       0xfc build-MT7687Lite/py/parsenum.o
                0x0000000010080870                mp_parse_num_integer
 .text.mp_parse_num_decimal
                0x000000001008096c       0x18 build-MT7687Lite/py/parsenum.o
                0x000000001008096c                mp_parse_num_decimal
 .text.mp_emit_glue_new_raw_code
                0x0000000010080984       0x14 build-MT7687Lite/py/emitglue.o
                0x0000000010080984                mp_emit_glue_new_raw_code
 .text.mp_emit_glue_assign_bytecode
                0x0000000010080998       0x1a build-MT7687Lite/py/emitglue.o
                0x0000000010080998                mp_emit_glue_assign_bytecode
 *fill*         0x00000000100809b2        0x2 
 .text.mp_make_function_from_raw_code
                0x00000000100809b4       0x90 build-MT7687Lite/py/emitglue.o
                0x00000000100809b4                mp_make_function_from_raw_code
 .text.mp_make_closure_from_raw_code
                0x0000000010080a44       0x28 build-MT7687Lite/py/emitglue.o
                0x0000000010080a44                mp_make_closure_from_raw_code
 .text.read_bytes
                0x0000000010080a6c       0x1a build-MT7687Lite/py/persistentcode.o
 .text.read_uint
                0x0000000010080a86       0x1c build-MT7687Lite/py/persistentcode.o
 .text.load_qstr
                0x0000000010080aa2       0x2e build-MT7687Lite/py/persistentcode.o
 .text.load_raw_code
                0x0000000010080ad0      0x1c8 build-MT7687Lite/py/persistentcode.o
 .text.mp_raw_code_load
                0x0000000010080c98       0x4c build-MT7687Lite/py/persistentcode.o
                0x0000000010080c98                mp_raw_code_load
 .text.mp_raw_code_load_file
                0x0000000010080ce4       0x16 build-MT7687Lite/py/persistentcode.o
                0x0000000010080ce4                mp_raw_code_load_file
 *fill*         0x0000000010080cfa        0x2 
 .text.mp_init  0x0000000010080cfc       0x7c build-MT7687Lite/py/runtime.o
                0x0000000010080cfc                mp_init
 .text.mp_load_build_class
                0x0000000010080d78       0x28 build-MT7687Lite/py/runtime.o
                0x0000000010080d78                mp_load_build_class
 .text.mp_store_name
                0x0000000010080da0       0x1c build-MT7687Lite/py/runtime.o
                0x0000000010080da0                mp_store_name
 .text.mp_delete_name
                0x0000000010080dbc       0x18 build-MT7687Lite/py/runtime.o
                0x0000000010080dbc                mp_delete_name
 .text.mp_store_global
                0x0000000010080dd4       0x1c build-MT7687Lite/py/runtime.o
                0x0000000010080dd4                mp_store_global
 .text.mp_delete_global
                0x0000000010080df0       0x18 build-MT7687Lite/py/runtime.o
                0x0000000010080df0                mp_delete_global
 .text.mp_convert_member_lookup
                0x0000000010080e08       0xb4 build-MT7687Lite/py/runtime.o
                0x0000000010080e08                mp_convert_member_lookup
 .text.mp_load_method_maybe
                0x0000000010080ebc       0x94 build-MT7687Lite/py/runtime.o
                0x0000000010080ebc                mp_load_method_maybe
 .text.mp_load_method_protected
                0x0000000010080f50       0x44 build-MT7687Lite/py/runtime.o
                0x0000000010080f50                mp_load_method_protected
 .text.mp_import_name
                0x0000000010080f94       0x28 build-MT7687Lite/py/runtime.o
                0x0000000010080f94                mp_import_name
 .text.mp_import_from
                0x0000000010080fbc       0xdc build-MT7687Lite/py/runtime.o
                0x0000000010080fbc                mp_import_from
 .text.mp_import_all
                0x0000000010081098       0x3c build-MT7687Lite/py/runtime.o
                0x0000000010081098                mp_import_all
 .text.mp_raise_msg
                0x00000000100810d4       0x12 build-MT7687Lite/py/runtime.o
                0x00000000100810d4                mp_raise_msg
 *fill*         0x00000000100810e6        0x2 
 .text.mp_load_global
                0x00000000100810e8       0x58 build-MT7687Lite/py/runtime.o
                0x00000000100810e8                mp_load_global
 .text.mp_load_name
                0x0000000010081140       0x38 build-MT7687Lite/py/runtime.o
                0x0000000010081140                mp_load_name
 .text.mp_load_method
                0x0000000010081178       0x20 build-MT7687Lite/py/runtime.o
                0x0000000010081178                mp_load_method
 .text.mp_load_attr
                0x0000000010081198       0x1a build-MT7687Lite/py/runtime.o
                0x0000000010081198                mp_load_attr
 *fill*         0x00000000100811b2        0x2 
 .text.mp_store_attr
                0x00000000100811b4       0x38 build-MT7687Lite/py/runtime.o
                0x00000000100811b4                mp_store_attr
 .text.m_malloc_fail
                0x00000000100811ec       0x2c build-MT7687Lite/py/runtime.o
                0x00000000100811ec                m_malloc_fail
 .text.mp_raise_ValueError
                0x0000000010081218       0x10 build-MT7687Lite/py/runtime.o
                0x0000000010081218                mp_raise_ValueError
 .text.mp_raise_TypeError
                0x0000000010081228       0x10 build-MT7687Lite/py/runtime.o
                0x0000000010081228                mp_raise_TypeError
 .text.mp_unary_op
                0x0000000010081238      0x108 build-MT7687Lite/py/runtime.o
                0x0000000010081238                mp_unary_op
 .text.mp_call_function_n_kw
                0x0000000010081340       0x30 build-MT7687Lite/py/runtime.o
                0x0000000010081340                mp_call_function_n_kw
 .text.mp_call_function_0
                0x0000000010081370        0xa build-MT7687Lite/py/runtime.o
                0x0000000010081370                mp_call_function_0
 .text.mp_parse_compile_execute
                0x000000001008137a       0x80 build-MT7687Lite/py/runtime.o
                0x000000001008137a                mp_parse_compile_execute
 .text.mp_call_function_1
                0x00000000100813fa       0x16 build-MT7687Lite/py/runtime.o
                0x00000000100813fa                mp_call_function_1
 .text.mp_call_method_n_kw
                0x0000000010081410       0x1e build-MT7687Lite/py/runtime.o
                0x0000000010081410                mp_call_method_n_kw
 *fill*         0x000000001008142e        0x2 
 .text.mp_make_raise_obj
                0x0000000010081430       0x3c build-MT7687Lite/py/runtime.o
                0x0000000010081430                mp_make_raise_obj
 .text.mp_resume
                0x000000001008146c      0x120 build-MT7687Lite/py/runtime.o
                0x000000001008146c                mp_resume
 .text.checked_fun_call
                0x000000001008158c       0x34 build-MT7687Lite/py/runtime.o
 .text.mp_getiter
                0x00000000100815c0       0x78 build-MT7687Lite/py/runtime.o
                0x00000000100815c0                mp_getiter
 .text.mp_iternext_allow_raise
                0x0000000010081638       0x38 build-MT7687Lite/py/runtime.o
                0x0000000010081638                mp_iternext_allow_raise
 .text.mp_iternext
                0x0000000010081670       0x64 build-MT7687Lite/py/runtime.o
                0x0000000010081670                mp_iternext
 .text.mp_call_method_n_kw_var
                0x00000000100816d4      0x28c build-MT7687Lite/py/runtime.o
                0x00000000100816d4                mp_call_method_n_kw_var
 .text.mp_unpack_sequence
                0x0000000010081960       0x90 build-MT7687Lite/py/runtime.o
                0x0000000010081960                mp_unpack_sequence
 .text.mp_unpack_ex
                0x00000000100819f0       0xfc build-MT7687Lite/py/runtime.o
                0x00000000100819f0                mp_unpack_ex
 .text.mp_binary_op
                0x0000000010081aec      0x280 build-MT7687Lite/py/runtime.o
                0x0000000010081aec                mp_binary_op
 .text.mp_raise_OSError
                0x0000000010081d6c       0x18 build-MT7687Lite/py/runtime.o
                0x0000000010081d6c                mp_raise_OSError
 .text.mp_raise_NotImplementedError
                0x0000000010081d84       0x10 build-MT7687Lite/py/runtime.o
                0x0000000010081d84                mp_raise_NotImplementedError
 .text.mp_call_function_1_protected
                0x0000000010081d94       0x34 build-MT7687Lite/py/runtime_utils.o
                0x0000000010081d94                mp_call_function_1_protected
 .text.mp_stack_set_top
                0x0000000010081dc8        0xc build-MT7687Lite/py/stackctrl.o
                0x0000000010081dc8                mp_stack_set_top
 .text.mp_arg_error_terse_mismatch
                0x0000000010081dd4        0xc build-MT7687Lite/py/argcheck.o
                0x0000000010081dd4                mp_arg_error_terse_mismatch
 .text.mp_arg_check_num
                0x0000000010081de0       0x22 build-MT7687Lite/py/argcheck.o
                0x0000000010081de0                mp_arg_check_num
 *fill*         0x0000000010081e02        0x2 
 .text.mp_arg_parse_all
                0x0000000010081e04       0xb0 build-MT7687Lite/py/argcheck.o
                0x0000000010081e04                mp_arg_parse_all
 .text.mp_arg_parse_all_kw_array
                0x0000000010081eb4       0x2c build-MT7687Lite/py/argcheck.o
                0x0000000010081eb4                mp_arg_parse_all_kw_array
 .text.mp_arg_error_unimpl_kw
                0x0000000010081ee0        0xc build-MT7687Lite/py/argcheck.o
                0x0000000010081ee0                mp_arg_error_unimpl_kw
 .text.mp_map_init
                0x0000000010081eec       0x2e build-MT7687Lite/py/map.o
                0x0000000010081eec                mp_map_init
 .text.mp_map_init_fixed_table
                0x0000000010081f1a       0x16 build-MT7687Lite/py/map.o
                0x0000000010081f1a                mp_map_init_fixed_table
 .text.mp_map_deinit
                0x0000000010081f30       0x1e build-MT7687Lite/py/map.o
                0x0000000010081f30                mp_map_deinit
 .text.mp_map_clear
                0x0000000010081f4e       0x2c build-MT7687Lite/py/map.o
                0x0000000010081f4e                mp_map_clear
 *fill*         0x0000000010081f7a        0x2 
 .text.mp_map_lookup
                0x0000000010081f7c      0x240 build-MT7687Lite/py/map.o
                0x0000000010081f7c                mp_map_lookup
 .text.mp_map_rehash
                0x00000000100821bc       0x70 build-MT7687Lite/py/map.o
 .text.mp_set_init
                0x000000001008222c       0x14 build-MT7687Lite/py/map.o
                0x000000001008222c                mp_set_init
 .text.mp_set_lookup
                0x0000000010082240       0xd4 build-MT7687Lite/py/map.o
                0x0000000010082240                mp_set_lookup
 .text.mp_set_rehash
                0x0000000010082314       0x5c build-MT7687Lite/py/map.o
 .text.mp_set_remove_first
                0x0000000010082370       0x40 build-MT7687Lite/py/map.o
                0x0000000010082370                mp_set_remove_first
 .text.mp_set_clear
                0x00000000100823b0       0x14 build-MT7687Lite/py/map.o
                0x00000000100823b0                mp_set_clear
 .text.mp_identity
                0x00000000100823c4        0x2 build-MT7687Lite/py/obj.o
                0x00000000100823c4                mp_identity
 *fill*         0x00000000100823c6        0x2 
 .text.mp_obj_get_type
                0x00000000100823c8       0x20 build-MT7687Lite/py/obj.o
                0x00000000100823c8                mp_obj_get_type
 .text.mp_obj_get_type_str
                0x00000000100823e8       0x10 build-MT7687Lite/py/obj.o
                0x00000000100823e8                mp_obj_get_type_str
 .text.mp_obj_print_helper
                0x00000000100823f8       0x38 build-MT7687Lite/py/obj.o
                0x00000000100823f8                mp_obj_print_helper
 .text.mp_obj_print
                0x0000000010082430       0x10 build-MT7687Lite/py/obj.o
                0x0000000010082430                mp_obj_print
 .text.mp_obj_print_exception
                0x0000000010082440       0xc0 build-MT7687Lite/py/obj.o
                0x0000000010082440                mp_obj_print_exception
 .text.mp_obj_is_callable
                0x0000000010082500       0x28 build-MT7687Lite/py/obj.o
                0x0000000010082500                mp_obj_is_callable
 .text.mp_obj_equal
                0x0000000010082528       0x94 build-MT7687Lite/py/obj.o
                0x0000000010082528                mp_obj_equal
 .text.mp_obj_get_int
                0x00000000100825bc       0x48 build-MT7687Lite/py/obj.o
                0x00000000100825bc                mp_obj_get_int
 .text.mp_obj_get_int_truncated
                0x0000000010082604       0x1c build-MT7687Lite/py/obj.o
                0x0000000010082604                mp_obj_get_int_truncated
 .text.mp_obj_get_int_maybe
                0x0000000010082620       0x54 build-MT7687Lite/py/obj.o
                0x0000000010082620                mp_obj_get_int_maybe
 .text.mp_obj_get_array
                0x0000000010082674       0x38 build-MT7687Lite/py/obj.o
                0x0000000010082674                mp_obj_get_array
 .text.mp_obj_get_array_fixed_n
                0x00000000100826ac       0x20 build-MT7687Lite/py/obj.o
                0x00000000100826ac                mp_obj_get_array_fixed_n
 .text.mp_get_index
                0x00000000100826cc       0x64 build-MT7687Lite/py/obj.o
                0x00000000100826cc                mp_get_index
 .text.mp_obj_id
                0x0000000010082730       0x18 build-MT7687Lite/py/obj.o
                0x0000000010082730                mp_obj_id
 .text.mp_obj_len_maybe
                0x0000000010082748       0x34 build-MT7687Lite/py/obj.o
                0x0000000010082748                mp_obj_len_maybe
 .text.mp_obj_is_true
                0x000000001008277c       0x64 build-MT7687Lite/py/obj.o
                0x000000001008277c                mp_obj_is_true
 .text.mp_obj_len
                0x00000000100827e0       0x14 build-MT7687Lite/py/obj.o
                0x00000000100827e0                mp_obj_len
 .text.mp_obj_subscr
                0x00000000100827f4       0x38 build-MT7687Lite/py/obj.o
                0x00000000100827f4                mp_obj_subscr
 .text.mp_identity_getiter
                0x000000001008282c        0x2 build-MT7687Lite/py/obj.o
                0x000000001008282c                mp_identity_getiter
 .text.mp_get_buffer
                0x000000001008282e       0x1c build-MT7687Lite/py/obj.o
                0x000000001008282e                mp_get_buffer
 *fill*         0x000000001008284a        0x2 
 .text.mp_get_buffer_raise
                0x000000001008284c       0x14 build-MT7687Lite/py/obj.o
                0x000000001008284c                mp_get_buffer_raise
 .text.mp_generic_unary_op
                0x0000000010082860        0xe build-MT7687Lite/py/obj.o
                0x0000000010082860                mp_generic_unary_op
 *fill*         0x000000001008286e        0x2 
 .text.array_unary_op
                0x0000000010082870       0x2c build-MT7687Lite/py/objarray.o
 .text.array_iterator_new
                0x000000001008289c       0x28 build-MT7687Lite/py/objarray.o
 .text.array_get_buffer
                0x00000000100828c4       0x50 build-MT7687Lite/py/objarray.o
 .text.array_new
                0x0000000010082914       0x48 build-MT7687Lite/py/objarray.o
 .text.array_extend
                0x000000001008295c       0xa0 build-MT7687Lite/py/objarray.o
 .text.array_append
                0x00000000100829fc       0xac build-MT7687Lite/py/objarray.o
 .text.array_it_iternext
                0x0000000010082aa8       0x28 build-MT7687Lite/py/objarray.o
 .text.array_subscr
                0x0000000010082ad0      0x24c build-MT7687Lite/py/objarray.o
 .text.array_binary_op
                0x0000000010082d1c      0x11c build-MT7687Lite/py/objarray.o
 .text.array_construct
                0x0000000010082e38       0xb4 build-MT7687Lite/py/objarray.o
 .text.array_make_new
                0x0000000010082eec       0x3c build-MT7687Lite/py/objarray.o
 .text.array_print
                0x0000000010082f28       0x90 build-MT7687Lite/py/objarray.o
 .text.bytearray_make_new
                0x0000000010082fb8       0x68 build-MT7687Lite/py/objarray.o
 .text.mp_obj_new_memoryview
                0x0000000010083020       0x28 build-MT7687Lite/py/objarray.o
                0x0000000010083020                mp_obj_new_memoryview
 .text.memoryview_make_new
                0x0000000010083048       0x56 build-MT7687Lite/py/objarray.o
 .text.mp_obj_attrtuple_attr
                0x000000001008309e       0x2a build-MT7687Lite/py/objattrtuple.o
 .text.mp_obj_attrtuple_print_helper
                0x00000000100830c8       0x68 build-MT7687Lite/py/objattrtuple.o
                0x00000000100830c8                mp_obj_attrtuple_print_helper
 .text.mp_obj_attrtuple_print
                0x0000000010083130        0xe build-MT7687Lite/py/objattrtuple.o
 .text.bool_binary_op
                0x000000001008313e        0xc build-MT7687Lite/py/objbool.o
 .text.bool_unary_op
                0x000000001008314a       0x14 build-MT7687Lite/py/objbool.o
 *fill*         0x000000001008315e        0x2 
 .text.bool_make_new
                0x0000000010083160       0x30 build-MT7687Lite/py/objbool.o
 .text.bool_print
                0x0000000010083190       0x2c build-MT7687Lite/py/objbool.o
 .text.mp_call_method_self_n_kw
                0x00000000100831bc       0x6a build-MT7687Lite/py/objboundmeth.o
                0x00000000100831bc                mp_call_method_self_n_kw
 .text.bound_meth_call
                0x0000000010083226       0x16 build-MT7687Lite/py/objboundmeth.o
 .text.mp_obj_new_bound_meth
                0x000000001008323c       0x1c build-MT7687Lite/py/objboundmeth.o
                0x000000001008323c                mp_obj_new_bound_meth
 .text.mp_obj_cell_get
                0x0000000010083258        0x4 build-MT7687Lite/py/objcell.o
                0x0000000010083258                mp_obj_cell_get
 .text.mp_obj_cell_set
                0x000000001008325c        0x4 build-MT7687Lite/py/objcell.o
                0x000000001008325c                mp_obj_cell_set
 .text.mp_obj_new_cell
                0x0000000010083260       0x18 build-MT7687Lite/py/objcell.o
                0x0000000010083260                mp_obj_new_cell
 .text.closure_call
                0x0000000010083278       0x8a build-MT7687Lite/py/objclosure.o
 *fill*         0x0000000010083302        0x2 
 .text.mp_obj_new_closure
                0x0000000010083304       0x34 build-MT7687Lite/py/objclosure.o
                0x0000000010083304                mp_obj_new_closure
 .text.dict_view_getiter
                0x0000000010083338       0x18 build-MT7687Lite/py/objdict.o
 .text.dict_getiter
                0x0000000010083350       0x18 build-MT7687Lite/py/objdict.o
 .text.dict_values
                0x0000000010083368       0x1c build-MT7687Lite/py/objdict.o
 .text.mp_ensure_not_fixed
                0x0000000010083384       0x10 build-MT7687Lite/py/objdict.o
 .text.dict_clear
                0x0000000010083394       0x18 build-MT7687Lite/py/objdict.o
 .text.dict_unary_op
                0x00000000100833ac       0x34 build-MT7687Lite/py/objdict.o
 .text.dict_get_helper
                0x00000000100833e0       0x58 build-MT7687Lite/py/objdict.o
 .text.dict_setdefault
                0x0000000010083438        0x6 build-MT7687Lite/py/objdict.o
 .text.dict_pop
                0x000000001008343e        0x6 build-MT7687Lite/py/objdict.o
 .text.dict_get
                0x0000000010083444        0x6 build-MT7687Lite/py/objdict.o
 .text.dict_iter_next
                0x000000001008344a       0x28 build-MT7687Lite/py/objdict.o
 .text.dict_view_it_iternext
                0x0000000010083472       0x3a build-MT7687Lite/py/objdict.o
 .text.dict_view_print
                0x00000000100834ac       0x78 build-MT7687Lite/py/objdict.o
 .text.dict_update
                0x0000000010083524       0xf8 build-MT7687Lite/py/objdict.o
 .text.dict_popitem
                0x000000001008361c       0x4c build-MT7687Lite/py/objdict.o
 .text.dict_binary_op
                0x0000000010083668       0xdc build-MT7687Lite/py/objdict.o
 .text.dict_view_binary_op
                0x0000000010083744       0x1a build-MT7687Lite/py/objdict.o
 *fill*         0x000000001008375e        0x2 
 .text.dict_print
                0x0000000010083760       0xb8 build-MT7687Lite/py/objdict.o
 .text.dict_items
                0x0000000010083818       0x1c build-MT7687Lite/py/objdict.o
 .text.dict_keys
                0x0000000010083834       0x1c build-MT7687Lite/py/objdict.o
 .text.mp_obj_dict_get
                0x0000000010083850       0x24 build-MT7687Lite/py/objdict.o
                0x0000000010083850                mp_obj_dict_get
 .text.mp_obj_dict_init
                0x0000000010083874       0x10 build-MT7687Lite/py/objdict.o
                0x0000000010083874                mp_obj_dict_init
 .text.mp_obj_new_dict
                0x0000000010083884       0x16 build-MT7687Lite/py/objdict.o
                0x0000000010083884                mp_obj_new_dict
 *fill*         0x000000001008389a        0x2 
 .text.dict_fromkeys
                0x000000001008389c       0x4c build-MT7687Lite/py/objdict.o
 .text.dict_copy
                0x00000000100838e8       0x4a build-MT7687Lite/py/objdict.o
 *fill*         0x0000000010083932        0x2 
 .text.dict_make_new
                0x0000000010083934       0x54 build-MT7687Lite/py/objdict.o
 .text.mp_obj_dict_len
                0x0000000010083988        0x6 build-MT7687Lite/py/objdict.o
                0x0000000010083988                mp_obj_dict_len
 .text.mp_obj_dict_store
                0x000000001008398e       0x1c build-MT7687Lite/py/objdict.o
                0x000000001008398e                mp_obj_dict_store
 .text.mp_obj_dict_delete
                0x00000000100839aa       0x18 build-MT7687Lite/py/objdict.o
                0x00000000100839aa                mp_obj_dict_delete
 *fill*         0x00000000100839c2        0x2 
 .text.dict_subscr
                0x00000000100839c4       0x3c build-MT7687Lite/py/objdict.o
 .text.enumerate_make_new
                0x0000000010083a00       0x3c build-MT7687Lite/py/objenumerate.o
 .text.enumerate_iternext
                0x0000000010083a3c       0x54 build-MT7687Lite/py/objenumerate.o
 .text.mp_obj_exception_print
                0x0000000010083a90       0xa8 build-MT7687Lite/py/objexcept.o
                0x0000000010083a90                mp_obj_exception_print
 .text.mp_obj_exception_make_new
                0x0000000010083b38       0x8c build-MT7687Lite/py/objexcept.o
                0x0000000010083b38                mp_obj_exception_make_new
 .text.exc_add_strn
                0x0000000010083bc4       0x54 build-MT7687Lite/py/objexcept.o
 .text.mp_init_emergency_exception_buf
                0x0000000010083c18       0x10 build-MT7687Lite/py/objexcept.o
                0x0000000010083c18                mp_init_emergency_exception_buf
 .text.mp_alloc_emergency_exception_buf
                0x0000000010083c28       0x3c build-MT7687Lite/py/objexcept.o
                0x0000000010083c28                mp_alloc_emergency_exception_buf
 .text.mp_obj_exception_get_value
                0x0000000010083c64       0x14 build-MT7687Lite/py/objexcept.o
                0x0000000010083c64                mp_obj_exception_get_value
 .text.mp_obj_exception_attr
                0x0000000010083c78       0x44 build-MT7687Lite/py/objexcept.o
                0x0000000010083c78                mp_obj_exception_attr
 .text.mp_obj_new_exception_args
                0x0000000010083cbc       0x34 build-MT7687Lite/py/objexcept.o
                0x0000000010083cbc                mp_obj_new_exception_args
 .text.mp_obj_new_exception
                0x0000000010083cf0        0x8 build-MT7687Lite/py/objexcept.o
                0x0000000010083cf0                mp_obj_new_exception
 .text.mp_obj_new_exception_arg1
                0x0000000010083cf8       0x14 build-MT7687Lite/py/objexcept.o
                0x0000000010083cf8                mp_obj_new_exception_arg1
 .text.mp_obj_new_exception_msg_varg
                0x0000000010083d0c       0xf4 build-MT7687Lite/py/objexcept.o
                0x0000000010083d0c                mp_obj_new_exception_msg_varg
 .text.mp_obj_new_exception_msg
                0x0000000010083e00        0x4 build-MT7687Lite/py/objexcept.o
                0x0000000010083e00                mp_obj_new_exception_msg
 .text.mp_obj_is_exception_type
                0x0000000010083e04       0x2c build-MT7687Lite/py/objexcept.o
                0x0000000010083e04                mp_obj_is_exception_type
 .text.mp_obj_is_exception_instance
                0x0000000010083e30        0xe build-MT7687Lite/py/objexcept.o
                0x0000000010083e30                mp_obj_is_exception_instance
 .text.mp_obj_exception_match
                0x0000000010083e3e       0x20 build-MT7687Lite/py/objexcept.o
                0x0000000010083e3e                mp_obj_exception_match
 *fill*         0x0000000010083e5e        0x2 
 .text.mp_obj_exception_clear_traceback
                0x0000000010083e60       0x40 build-MT7687Lite/py/objexcept.o
                0x0000000010083e60                mp_obj_exception_clear_traceback
 .text.mp_obj_exception_add_traceback
                0x0000000010083ea0       0xac build-MT7687Lite/py/objexcept.o
                0x0000000010083ea0                mp_obj_exception_add_traceback
 .text.mp_obj_exception_get_traceback
                0x0000000010083f4c       0x4c build-MT7687Lite/py/objexcept.o
                0x0000000010083f4c                mp_obj_exception_get_traceback
 .text.filter_iternext
                0x0000000010083f98       0x38 build-MT7687Lite/py/objfilter.o
 .text.filter_make_new
                0x0000000010083fd0       0x34 build-MT7687Lite/py/objfilter.o
 .text.fun_builtin_0_call
                0x0000000010084004       0x44 build-MT7687Lite/py/objfun.o
 .text.fun_builtin_1_call
                0x0000000010084048       0x4c build-MT7687Lite/py/objfun.o
 .text.fun_builtin_2_call
                0x0000000010084094       0x4c build-MT7687Lite/py/objfun.o
 .text.fun_builtin_3_call
                0x00000000100840e0       0x4c build-MT7687Lite/py/objfun.o
 .text.fun_builtin_var_call
                0x000000001008412c       0x78 build-MT7687Lite/py/objfun.o
 .text.fun_bc_call
                0x00000000100841a4       0xe4 build-MT7687Lite/py/objfun.o
 .text.mp_obj_code_get_name
                0x0000000010084288       0x10 build-MT7687Lite/py/objfun.o
                0x0000000010084288                mp_obj_code_get_name
 .text.mp_obj_fun_get_name
                0x0000000010084298       0x16 build-MT7687Lite/py/objfun.o
                0x0000000010084298                mp_obj_fun_get_name
 *fill*         0x00000000100842ae        0x2 
 .text.fun_bc_print
                0x00000000100842b0       0x20 build-MT7687Lite/py/objfun.o
 .text.mp_obj_new_fun_bc
                0x00000000100842d0       0xc4 build-MT7687Lite/py/objfun.o
                0x00000000100842d0                mp_obj_new_fun_bc
 .text.gen_wrap_call
                0x0000000010084394       0x54 build-MT7687Lite/py/objgenerator.o
 .text.gen_instance_pend_throw
                0x00000000100843e8       0x1c build-MT7687Lite/py/objgenerator.o
 .text.gen_instance_print
                0x0000000010084404       0x20 build-MT7687Lite/py/objgenerator.o
 .text.unlikely.gen_instance_send.part.1
                0x0000000010084424       0x10 build-MT7687Lite/py/objgenerator.o
 .text.mp_obj_gen_resume
                0x0000000010084434       0xb8 build-MT7687Lite/py/objgenerator.o
                0x0000000010084434                mp_obj_gen_resume
 .text.gen_resume_and_raise
                0x00000000100844ec       0x58 build-MT7687Lite/py/objgenerator.o
 .text.gen_instance_throw
                0x0000000010084544       0x24 build-MT7687Lite/py/objgenerator.o
 .text.gen_instance_send
                0x0000000010084568       0x12 build-MT7687Lite/py/objgenerator.o
 *fill*         0x000000001008457a        0x2 
 .text.gen_instance_iternext
                0x000000001008457c        0xc build-MT7687Lite/py/objgenerator.o
 .text.gen_instance_close
                0x0000000010084588       0x64 build-MT7687Lite/py/objgenerator.o
 .text.it_iternext
                0x00000000100845ec       0x54 build-MT7687Lite/py/objgetitemiter.o
 .text.mp_obj_new_getitem_iter
                0x0000000010084640       0x18 build-MT7687Lite/py/objgetitemiter.o
                0x0000000010084640                mp_obj_new_getitem_iter
 .text.int_to_bytes
                0x0000000010084658       0x7c build-MT7687Lite/py/objint.o
 .text.int_from_bytes
                0x00000000100846d4       0x6c build-MT7687Lite/py/objint.o
 .text.mp_obj_int_make_new
                0x0000000010084740       0x88 build-MT7687Lite/py/objint.o
 .text.mp_int_format_size
                0x00000000100847c8       0x50 build-MT7687Lite/py/objint.o
                0x00000000100847c8                mp_int_format_size
 .text.mp_obj_int_formatted
                0x0000000010084818      0x154 build-MT7687Lite/py/objint.o
                0x0000000010084818                mp_obj_int_formatted
 .text.mp_obj_int_print
                0x000000001008496c       0x3c build-MT7687Lite/py/objint.o
                0x000000001008496c                mp_obj_int_print
 .text.mp_obj_int_binary_op_extra_cases
                0x00000000100849a8       0x64 build-MT7687Lite/py/objint.o
                0x00000000100849a8                mp_obj_int_binary_op_extra_cases
 .text.mp_obj_int_new_mpz
                0x0000000010084a0c       0x1c build-MT7687Lite/py/objint_mpz.o
                0x0000000010084a0c                mp_obj_int_new_mpz
 .text.mp_obj_int_formatted_impl
                0x0000000010084a28       0x78 build-MT7687Lite/py/objint_mpz.o
                0x0000000010084a28                mp_obj_int_formatted_impl
 .text.mp_obj_int_from_bytes_impl
                0x0000000010084aa0       0x1e build-MT7687Lite/py/objint_mpz.o
                0x0000000010084aa0                mp_obj_int_from_bytes_impl
 *fill*         0x0000000010084abe        0x2 
 .text.mp_obj_int_to_bytes_impl
                0x0000000010084ac0       0x4c build-MT7687Lite/py/objint_mpz.o
                0x0000000010084ac0                mp_obj_int_to_bytes_impl
 .text.mp_obj_int_sign
                0x0000000010084b0c       0x30 build-MT7687Lite/py/objint_mpz.o
                0x0000000010084b0c                mp_obj_int_sign
 .text.mp_obj_int_unary_op
                0x0000000010084b3c       0x78 build-MT7687Lite/py/objint_mpz.o
                0x0000000010084b3c                mp_obj_int_unary_op
 .text.mp_obj_new_int_from_ll
                0x0000000010084bb4       0x20 build-MT7687Lite/py/objint_mpz.o
                0x0000000010084bb4                mp_obj_new_int_from_ll
 .text.mp_obj_new_int
                0x0000000010084bd4       0x14 build-MT7687Lite/py/objint_mpz.o
                0x0000000010084bd4                mp_obj_new_int
 .text.mp_obj_new_int_from_ull
                0x0000000010084be8       0x20 build-MT7687Lite/py/objint_mpz.o
                0x0000000010084be8                mp_obj_new_int_from_ull
 .text.mp_obj_new_int_from_uint
                0x0000000010084c08       0x14 build-MT7687Lite/py/objint_mpz.o
                0x0000000010084c08                mp_obj_new_int_from_uint
 .text.mp_obj_new_int_from_str_len
                0x0000000010084c1c       0x30 build-MT7687Lite/py/objint_mpz.o
                0x0000000010084c1c                mp_obj_new_int_from_str_len
 .text.mp_obj_int_get_truncated
                0x0000000010084c4c        0xe build-MT7687Lite/py/objint_mpz.o
                0x0000000010084c4c                mp_obj_int_get_truncated
 *fill*         0x0000000010084c5a        0x2 
 .text.mp_obj_int_get_checked
                0x0000000010084c5c       0x2c build-MT7687Lite/py/objint_mpz.o
                0x0000000010084c5c                mp_obj_int_get_checked
 .text.mp_obj_int_binary_op
                0x0000000010084c88      0x240 build-MT7687Lite/py/objint_mpz.o
                0x0000000010084c88                mp_obj_int_binary_op
 .text.list_unary_op
                0x0000000010084ec8       0x2c build-MT7687Lite/py/objlist.o
 .text.list_getiter
                0x0000000010084ef4       0x1c build-MT7687Lite/py/objlist.o
 .text.list_reverse
                0x0000000010084f10       0x38 build-MT7687Lite/py/objlist.o
 .text.list_it_iternext
                0x0000000010084f48       0x1c build-MT7687Lite/py/objlist.o
 .text.mp_obj_list_append
                0x0000000010084f64       0x4c build-MT7687Lite/py/objlist.o
                0x0000000010084f64                mp_obj_list_append
 .text.list_insert
                0x0000000010084fb0       0x4c build-MT7687Lite/py/objlist.o
 .text.list_clear
                0x0000000010084ffc       0x28 build-MT7687Lite/py/objlist.o
 .text.mp_quicksort
                0x0000000010085024       0xba build-MT7687Lite/py/objlist.o
 *fill*         0x00000000100850de        0x2 
 .text.mp_obj_list_sort
                0x00000000100850e0       0x60 build-MT7687Lite/py/objlist.o
                0x00000000100850e0                mp_obj_list_sort
 .text.list_index
                0x0000000010085140       0x12 build-MT7687Lite/py/objlist.o
 *fill*         0x0000000010085152        0x2 
 .text.list_pop
                0x0000000010085154       0x78 build-MT7687Lite/py/objlist.o
 .text.mp_obj_list_remove
                0x00000000100851cc       0x24 build-MT7687Lite/py/objlist.o
                0x00000000100851cc                mp_obj_list_remove
 .text.list_extend_from_iter
                0x00000000100851f0       0x24 build-MT7687Lite/py/objlist.o
 .text.list_count
                0x0000000010085214        0xa build-MT7687Lite/py/objlist.o
 *fill*         0x000000001008521e        0x2 
 .text.list_print
                0x0000000010085220       0x58 build-MT7687Lite/py/objlist.o
 .text.list_extend
                0x0000000010085278       0x74 build-MT7687Lite/py/objlist.o
 .text.mp_obj_list_init
                0x00000000100852ec       0x38 build-MT7687Lite/py/objlist.o
                0x00000000100852ec                mp_obj_list_init
 .text.list_new
                0x0000000010085324       0x16 build-MT7687Lite/py/objlist.o
 *fill*         0x000000001008533a        0x2 
 .text.list_binary_op
                0x000000001008533c       0xd4 build-MT7687Lite/py/objlist.o
 .text.list_make_new
                0x0000000010085410       0x36 build-MT7687Lite/py/objlist.o
 .text.mp_obj_new_list
                0x0000000010085446       0x24 build-MT7687Lite/py/objlist.o
                0x0000000010085446                mp_obj_new_list
 .text.list_copy
                0x000000001008546a        0x8 build-MT7687Lite/py/objlist.o
 .text.mp_obj_list_get
                0x0000000010085472        0xa build-MT7687Lite/py/objlist.o
                0x0000000010085472                mp_obj_list_get
 .text.mp_obj_list_set_len
                0x000000001008547c        0x4 build-MT7687Lite/py/objlist.o
                0x000000001008547c                mp_obj_list_set_len
 .text.mp_obj_list_store
                0x0000000010085480       0x1a build-MT7687Lite/py/objlist.o
                0x0000000010085480                mp_obj_list_store
 *fill*         0x000000001008549a        0x2 
 .text.list_subscr
                0x000000001008549c      0x1a4 build-MT7687Lite/py/objlist.o
 .text.map_iternext
                0x0000000010085640       0x4c build-MT7687Lite/py/objmap.o
 .text.map_make_new
                0x000000001008568c       0x56 build-MT7687Lite/py/objmap.o
 *fill*         0x00000000100856e2        0x2 
 .text.module_print
                0x00000000100856e4       0x60 build-MT7687Lite/py/objmodule.o
 .text.module_attr
                0x0000000010085744       0x60 build-MT7687Lite/py/objmodule.o
 .text.mp_obj_new_module
                0x00000000100857a4       0x44 build-MT7687Lite/py/objmodule.o
                0x00000000100857a4                mp_obj_new_module
 .text.mp_module_get
                0x00000000100857e8       0x2c build-MT7687Lite/py/objmodule.o
                0x00000000100857e8                mp_module_get
 .text.object___init__
                0x0000000010085814        0x8 build-MT7687Lite/py/objobject.o
 .text.object___new__
                0x000000001008581c       0x34 build-MT7687Lite/py/objobject.o
 .text.object_make_new
                0x0000000010085850       0x1e build-MT7687Lite/py/objobject.o
 .text.polymorph_it_iternext
                0x000000001008586e        0x4 build-MT7687Lite/py/objpolyiter.o
 .text.property_deleter
                0x0000000010085872       0x1c build-MT7687Lite/py/objproperty.o
 .text.property_setter
                0x000000001008588e       0x1c build-MT7687Lite/py/objproperty.o
 .text.property_getter
                0x00000000100858aa       0x1c build-MT7687Lite/py/objproperty.o
 *fill*         0x00000000100858c6        0x2 
 .text.property_make_new
                0x00000000100858c8       0x38 build-MT7687Lite/py/objproperty.o
 .text.mp_obj_property_get
                0x0000000010085900        0x4 build-MT7687Lite/py/objproperty.o
                0x0000000010085900                mp_obj_property_get
 .text.none_print
                0x0000000010085904       0x14 build-MT7687Lite/py/objnone.o
 .text.namedtuple_print
                0x0000000010085918       0x24 build-MT7687Lite/py/objnamedtuple.o
 .text.mp_obj_namedtuple_find_field
                0x000000001008593c       0x20 build-MT7687Lite/py/objnamedtuple.o
                0x000000001008593c                mp_obj_namedtuple_find_field
 .text.namedtuple_attr
                0x000000001008595c       0x30 build-MT7687Lite/py/objnamedtuple.o
 .text.namedtuple_make_new
                0x000000001008598c       0x7a build-MT7687Lite/py/objnamedtuple.o
 .text.mp_obj_new_namedtuple_base
                0x0000000010085a06       0x3c build-MT7687Lite/py/objnamedtuple.o
                0x0000000010085a06                mp_obj_new_namedtuple_base
 *fill*         0x0000000010085a42        0x2 
 .text.new_namedtuple_type
                0x0000000010085a44       0x8c build-MT7687Lite/py/objnamedtuple.o
 .text.range_it_iternext
                0x0000000010085ad0       0x2c build-MT7687Lite/py/objrange.o
 .text.range_len
                0x0000000010085afc       0x1e build-MT7687Lite/py/objrange.o
 *fill*         0x0000000010085b1a        0x2 
 .text.range_unary_op
                0x0000000010085b1c       0x34 build-MT7687Lite/py/objrange.o
 .text.range_getiter
                0x0000000010085b50       0x1c build-MT7687Lite/py/objrange.o
 .text.range_make_new
                0x0000000010085b6c       0x68 build-MT7687Lite/py/objrange.o
 .text.range_print
                0x0000000010085bd4       0x3c build-MT7687Lite/py/objrange.o
 .text.range_subscr
                0x0000000010085c10       0x80 build-MT7687Lite/py/objrange.o
 .text.range_attr
                0x0000000010085c90       0x2e build-MT7687Lite/py/objrange.o
 .text.reversed_iternext
                0x0000000010085cbe       0x1a build-MT7687Lite/py/objreversed.o
 .text.reversed_make_new
                0x0000000010085cd8       0x50 build-MT7687Lite/py/objreversed.o
 .text.is_set_or_frozenset
                0x0000000010085d28       0x28 build-MT7687Lite/py/objset.o
 .text.set_getiter
                0x0000000010085d50       0x1c build-MT7687Lite/py/objset.o
 .text.set_add  0x0000000010085d6c       0x14 build-MT7687Lite/py/objset.o
 .text.set_discard
                0x0000000010085d80       0x14 build-MT7687Lite/py/objset.o
 .text.set_update_int
                0x0000000010085d94       0x28 build-MT7687Lite/py/objset.o
 .text.set_update
                0x0000000010085dbc       0x24 build-MT7687Lite/py/objset.o
 .text.set_symmetric_difference_update
                0x0000000010085de0       0x30 build-MT7687Lite/py/objset.o
 .text.set_isdisjoint
                0x0000000010085e10       0x3c build-MT7687Lite/py/objset.o
 .text.set_copy
                0x0000000010085e4c       0x2c build-MT7687Lite/py/objset.o
 .text.set_union
                0x0000000010085e78       0x14 build-MT7687Lite/py/objset.o
 .text.set_symmetric_difference
                0x0000000010085e8c       0x14 build-MT7687Lite/py/objset.o
 .text.set_clear
                0x0000000010085ea0       0x10 build-MT7687Lite/py/objset.o
 .text.set_diff_int
                0x0000000010085eb0       0x54 build-MT7687Lite/py/objset.o
 .text.set_diff_update
                0x0000000010085f04       0x10 build-MT7687Lite/py/objset.o
 .text.set_diff
                0x0000000010085f14        0x6 build-MT7687Lite/py/objset.o
 *fill*         0x0000000010085f1a        0x2 
 .text.set_print
                0x0000000010085f1c       0xb8 build-MT7687Lite/py/objset.o
 .text.set_remove
                0x0000000010085fd4       0x28 build-MT7687Lite/py/objset.o
 .text.set_pop  0x0000000010085ffc       0x1c build-MT7687Lite/py/objset.o
 .text.set_it_iternext
                0x0000000010086018       0x32 build-MT7687Lite/py/objset.o
 *fill*         0x000000001008604a        0x2 
 .text.set_unary_op
                0x000000001008604c       0x6c build-MT7687Lite/py/objset.o
 .text.mp_obj_new_set
                0x00000000100860b8       0x40 build-MT7687Lite/py/objset.o
                0x00000000100860b8                mp_obj_new_set
 .text.set_intersect_int
                0x00000000100860f8       0x78 build-MT7687Lite/py/objset.o
 .text.set_intersect_update
                0x0000000010086170        0x6 build-MT7687Lite/py/objset.o
 .text.set_intersect
                0x0000000010086176        0x6 build-MT7687Lite/py/objset.o
 .text.mp_obj_set_store
                0x000000001008617c        0x8 build-MT7687Lite/py/objset.o
                0x000000001008617c                mp_obj_set_store
 .text.set_make_new
                0x0000000010086184       0x58 build-MT7687Lite/py/objset.o
 .text.set_issubset_internal
                0x00000000100861dc       0xb4 build-MT7687Lite/py/objset.o
 .text.set_issuperset
                0x0000000010086290        0xc build-MT7687Lite/py/objset.o
 .text.set_issubset
                0x000000001008629c        0x6 build-MT7687Lite/py/objset.o
 *fill*         0x00000000100862a2        0x2 
 .text.set_binary_op
                0x00000000100862a4      0x160 build-MT7687Lite/py/objset.o
 .text.singleton_print
                0x0000000010086404        0xc build-MT7687Lite/py/objsingleton.o
 .text.slice_print
                0x0000000010086410       0x54 build-MT7687Lite/py/objslice.o
 .text.mp_obj_new_slice
                0x0000000010086464       0x20 build-MT7687Lite/py/objslice.o
                0x0000000010086464                mp_obj_new_slice
 .text.mp_obj_slice_get
                0x0000000010086484       0x38 build-MT7687Lite/py/objslice.o
                0x0000000010086484                mp_obj_slice_get
 .text.arg_looks_integer
                0x00000000100864bc       0x34 build-MT7687Lite/py/objstr.o
 .text.mp_obj_new_bytes_iterator
                0x00000000100864f0       0x1c build-MT7687Lite/py/objstr.o
 .text.bytes_it_iternext
                0x000000001008650c       0x3a build-MT7687Lite/py/objstr.o
 *fill*         0x0000000010086546        0x2 
 .text.terse_str_format_value_error
                0x0000000010086548        0xc build-MT7687Lite/py/objstr.o
 .text.str_uni_istype
                0x0000000010086554       0x8c build-MT7687Lite/py/objstr.o
 .text.str_isspace
                0x00000000100865e0        0xc build-MT7687Lite/py/objstr.o
 .text.str_isalpha
                0x00000000100865ec        0xc build-MT7687Lite/py/objstr.o
 .text.str_isdigit
                0x00000000100865f8        0xc build-MT7687Lite/py/objstr.o
 .text.str_isupper
                0x0000000010086604        0xc build-MT7687Lite/py/objstr.o
 .text.str_islower
                0x0000000010086610        0xc build-MT7687Lite/py/objstr.o
 .text.str_to_int
                0x000000001008661c       0x30 build-MT7687Lite/py/objstr.o
 .text.mp_obj_str_get_buffer
                0x000000001008664c       0x40 build-MT7687Lite/py/objstr.o
                0x000000001008664c                mp_obj_str_get_buffer
 .text.unlikely.bad_implicit_conversion.isra.2
                0x000000001008668c        0xc build-MT7687Lite/py/objstr.o
 .text.str_count
                0x0000000010086698       0xe8 build-MT7687Lite/py/objstr.o
 .text.mp_str_print_quoted
                0x0000000010086780       0xc8 build-MT7687Lite/py/objstr.o
                0x0000000010086780                mp_str_print_quoted
 .text.mp_str_print_json
                0x0000000010086848       0x88 build-MT7687Lite/py/objstr.o
                0x0000000010086848                mp_str_print_json
 .text.str_print
                0x00000000100868d0       0x64 build-MT7687Lite/py/objstr.o
 .text.find_subbytes
                0x0000000010086934       0x42 build-MT7687Lite/py/objstr.o
                0x0000000010086934                find_subbytes
 *fill*         0x0000000010086976        0x2 
 .text.str_finder
                0x0000000010086978       0xf8 build-MT7687Lite/py/objstr.o
 .text.str_find
                0x0000000010086a70        0x8 build-MT7687Lite/py/objstr.o
 .text.str_rfind
                0x0000000010086a78        0xa build-MT7687Lite/py/objstr.o
 .text.str_index
                0x0000000010086a82        0x8 build-MT7687Lite/py/objstr.o
 .text.str_rindex
                0x0000000010086a8a        0xa build-MT7687Lite/py/objstr.o
 .text.mp_obj_new_str_copy
                0x0000000010086a94       0x38 build-MT7687Lite/py/objstr.o
                0x0000000010086a94                mp_obj_new_str_copy
 .text.mp_obj_new_str_via_qstr
                0x0000000010086acc        0xe build-MT7687Lite/py/objstr.o
                0x0000000010086acc                mp_obj_new_str_via_qstr
 *fill*         0x0000000010086ada        0x2 
 .text.mp_obj_new_str_from_vstr
                0x0000000010086adc       0x6c build-MT7687Lite/py/objstr.o
                0x0000000010086adc                mp_obj_new_str_from_vstr
 .text.str_join
                0x0000000010086b48      0x10c build-MT7687Lite/py/objstr.o
 .text.str_replace
                0x0000000010086c54      0x17c build-MT7687Lite/py/objstr.o
 .text.str_caseconv
                0x0000000010086dd0       0x58 build-MT7687Lite/py/objstr.o
 .text.str_lower
                0x0000000010086e28        0xc build-MT7687Lite/py/objstr.o
 .text.str_upper
                0x0000000010086e34        0xc build-MT7687Lite/py/objstr.o
 .text.mp_obj_new_str
                0x0000000010086e40       0x28 build-MT7687Lite/py/objstr.o
                0x0000000010086e40                mp_obj_new_str
 .text.mp_obj_str_make_new
                0x0000000010086e68       0xc8 build-MT7687Lite/py/objstr.o
                0x0000000010086e68                mp_obj_str_make_new
 .text.bytes_decode
                0x0000000010086f30       0x2c build-MT7687Lite/py/objstr.o
 .text.mp_obj_new_bytes
                0x0000000010086f5c       0x10 build-MT7687Lite/py/objstr.o
                0x0000000010086f5c                mp_obj_new_bytes
 .text.bytes_make_new.part.5
                0x0000000010086f6c      0x110 build-MT7687Lite/py/objstr.o
 .text.bytes_make_new
                0x000000001008707c       0x20 build-MT7687Lite/py/objstr.o
 .text.str_encode
                0x000000001008709c       0x2c build-MT7687Lite/py/objstr.o
 .text.mp_obj_new_str_of_type
                0x00000000100870c8       0x18 build-MT7687Lite/py/objstr.o
                0x00000000100870c8                mp_obj_new_str_of_type
 .text.str_splitlines
                0x00000000100870e0       0xa0 build-MT7687Lite/py/objstr.o
 .text.str_uni_strip
                0x0000000010087180      0x148 build-MT7687Lite/py/objstr.o
 .text.str_strip
                0x00000000100872c8        0xa build-MT7687Lite/py/objstr.o
 .text.str_lstrip
                0x00000000100872d2        0xa build-MT7687Lite/py/objstr.o
 .text.str_rstrip
                0x00000000100872dc        0xa build-MT7687Lite/py/objstr.o
 *fill*         0x00000000100872e6        0x2 
 .text.bytes_subscr
                0x00000000100872e8       0x80 build-MT7687Lite/py/objstr.o
 .text.mp_obj_str_equal
                0x0000000010087368       0x90 build-MT7687Lite/py/objstr.o
                0x0000000010087368                mp_obj_str_equal
 .text.mp_obj_str_get_qstr
                0x00000000100873f8       0x2c build-MT7687Lite/py/objstr.o
                0x00000000100873f8                mp_obj_str_get_qstr
 .text.mp_obj_str_get_str
                0x0000000010087424       0x30 build-MT7687Lite/py/objstr.o
                0x0000000010087424                mp_obj_str_get_str
 .text.mp_obj_str_get_data
                0x0000000010087454       0x38 build-MT7687Lite/py/objstr.o
                0x0000000010087454                mp_obj_str_get_data
 .text.mp_obj_str_binary_op
                0x000000001008748c      0x4a8 build-MT7687Lite/py/objstr.o
                0x000000001008748c                mp_obj_str_binary_op
 .text.mp_obj_str_split
                0x0000000010087934      0x14c build-MT7687Lite/py/objstr.o
                0x0000000010087934                mp_obj_str_split
 .text.str_rsplit
                0x0000000010087a80      0x114 build-MT7687Lite/py/objstr.o
 .text.str_startswith
                0x0000000010087b94       0x80 build-MT7687Lite/py/objstr.o
 .text.str_endswith
                0x0000000010087c14       0x68 build-MT7687Lite/py/objstr.o
 .text.mp_obj_str_format_helper
                0x0000000010087c7c      0x4c0 build-MT7687Lite/py/objstr.o
 .text.mp_obj_str_format
                0x000000001008813c       0x4c build-MT7687Lite/py/objstr.o
                0x000000001008813c                mp_obj_str_format
 .text.mp_obj_str_intern_checked
                0x0000000010088188       0x14 build-MT7687Lite/py/objstr.o
                0x0000000010088188                mp_obj_str_intern_checked
 .text.mp_obj_new_str_iterator
                0x000000001008819c       0x1c build-MT7687Lite/py/objstrunicode.o
 .text.str_it_iternext
                0x00000000100881b8       0x46 build-MT7687Lite/py/objstrunicode.o
 *fill*         0x00000000100881fe        0x2 
 .text.uni_unary_op
                0x0000000010088200       0x50 build-MT7687Lite/py/objstrunicode.o
 .text.uni_print
                0x0000000010088250      0x12c build-MT7687Lite/py/objstrunicode.o
 .text.str_index_to_ptr
                0x000000001008837c       0xcc build-MT7687Lite/py/objstrunicode.o
                0x000000001008837c                str_index_to_ptr
 .text.str_subscr
                0x0000000010088448      0x100 build-MT7687Lite/py/objstrunicode.o
 .text.stringio___exit__
                0x0000000010088548        0x6 build-MT7687Lite/py/objstringio.o
 *fill*         0x000000001008854e        0x2 
 .text.stringio_print
                0x0000000010088550       0x28 build-MT7687Lite/py/objstringio.o
 .text.stringio_write
                0x0000000010088578       0xa0 build-MT7687Lite/py/objstringio.o
 .text.stringio_make_new
                0x0000000010088618       0xa0 build-MT7687Lite/py/objstringio.o
 .text.stringio_ioctl
                0x00000000100886b8       0x5a build-MT7687Lite/py/objstringio.o
 *fill*         0x0000000010088712        0x2 
 .text.stringio_getvalue
                0x0000000010088714       0x38 build-MT7687Lite/py/objstringio.o
 .text.stringio_read
                0x000000001008874c       0x3c build-MT7687Lite/py/objstringio.o
 .text.tuple_it_iternext
                0x0000000010088788       0x1c build-MT7687Lite/py/objtuple.o
 .text.mp_obj_tuple_getiter
                0x00000000100887a4       0x1c build-MT7687Lite/py/objtuple.o
                0x00000000100887a4                mp_obj_tuple_getiter
 .text.mp_obj_tuple_print
                0x00000000100887c0       0x80 build-MT7687Lite/py/objtuple.o
                0x00000000100887c0                mp_obj_tuple_print
 .text.tuple_index
                0x0000000010088840       0x14 build-MT7687Lite/py/objtuple.o
 .text.tuple_count
                0x0000000010088854        0xc build-MT7687Lite/py/objtuple.o
 .text.mp_obj_tuple_unary_op
                0x0000000010088860       0x5c build-MT7687Lite/py/objtuple.o
                0x0000000010088860                mp_obj_tuple_unary_op
 .text.mp_obj_new_tuple
                0x00000000100888bc       0x3c build-MT7687Lite/py/objtuple.o
                0x00000000100888bc                mp_obj_new_tuple
 .text.mp_obj_tuple_binary_op
                0x00000000100888f8      0x104 build-MT7687Lite/py/objtuple.o
                0x00000000100888f8                mp_obj_tuple_binary_op
 .text.mp_obj_tuple_subscr
                0x00000000100889fc       0x70 build-MT7687Lite/py/objtuple.o
                0x00000000100889fc                mp_obj_tuple_subscr
 .text.mp_obj_tuple_make_new
                0x0000000010088a6c       0x84 build-MT7687Lite/py/objtuple.o
 .text.mp_obj_tuple_get
                0x0000000010088af0       0x34 build-MT7687Lite/py/objtuple.o
                0x0000000010088af0                mp_obj_tuple_get
 .text.mp_obj_tuple_del
                0x0000000010088b24       0x34 build-MT7687Lite/py/objtuple.o
                0x0000000010088b24                mp_obj_tuple_del
 .text.type_call
                0x0000000010088b58       0x18 build-MT7687Lite/py/objtype.o
 .text.mp_obj_class_lookup
                0x0000000010088b70      0x164 build-MT7687Lite/py/objtype.o
 .text.super_attr
                0x0000000010088cd4      0x104 build-MT7687Lite/py/objtype.o
 .text.super_make_new
                0x0000000010088dd8       0x44 build-MT7687Lite/py/objtype.o
 .text.type_print
                0x0000000010088e1c        0xc build-MT7687Lite/py/objtype.o
 .text.instance_subscr
                0x0000000010088e28       0x80 build-MT7687Lite/py/objtype.o
 .text.instance_binary_op
                0x0000000010088ea8       0x6c build-MT7687Lite/py/objtype.o
 .text.instance_unary_op
                0x0000000010088f14       0x7c build-MT7687Lite/py/objtype.o
 .text.super_print
                0x0000000010088f90       0x40 build-MT7687Lite/py/objtype.o
 .text.instance_print
                0x0000000010088fd0       0xa8 build-MT7687Lite/py/objtype.o
 .text.mp_obj_instance_attr
                0x0000000010089078      0x1a8 build-MT7687Lite/py/objtype.o
 .text.type_attr
                0x0000000010089220       0xe0 build-MT7687Lite/py/objtype.o
 .text.instance_count_native_bases
                0x0000000010089300       0x88 build-MT7687Lite/py/objtype.o
 .text.native_base_init_wrapper
                0x0000000010089388       0x38 build-MT7687Lite/py/objtype.o
 .text.instance_get_buffer
                0x00000000100893c0       0x48 build-MT7687Lite/py/objtype.o
 .text.instance_getiter
                0x0000000010089408       0x4e build-MT7687Lite/py/objtype.o
 *fill*         0x0000000010089456        0x2 
 .text.static_class_method_make_new
                0x0000000010089458       0x54 build-MT7687Lite/py/objtype.o
 .text.mp_obj_instance_call
                0x00000000100894ac       0x5c build-MT7687Lite/py/objtype.o
                0x00000000100894ac                mp_obj_instance_call
 .text.mp_obj_new_instance
                0x0000000010089508       0x48 build-MT7687Lite/py/objtype.o
                0x0000000010089508                mp_obj_new_instance
 .text.mp_obj_instance_make_new
                0x0000000010089550      0x160 build-MT7687Lite/py/objtype.o
                0x0000000010089550                mp_obj_instance_make_new
 .text.mp_obj_instance_is_callable
                0x00000000100896b0       0x32 build-MT7687Lite/py/objtype.o
                0x00000000100896b0                mp_obj_instance_is_callable
 *fill*         0x00000000100896e2        0x2 
 .text.mp_obj_new_type
                0x00000000100896e4      0x180 build-MT7687Lite/py/objtype.o
                0x00000000100896e4                mp_obj_new_type
 .text.type_make_new
                0x0000000010089864       0x48 build-MT7687Lite/py/objtype.o
 .text.mp_load_super_method
                0x00000000100898ac       0x24 build-MT7687Lite/py/objtype.o
                0x00000000100898ac                mp_load_super_method
 .text.mp_obj_is_subclass_fast
                0x00000000100898d0       0x6c build-MT7687Lite/py/objtype.o
                0x00000000100898d0                mp_obj_is_subclass_fast
 .text.mp_obj_is_subclass
                0x000000001008993c       0x7c build-MT7687Lite/py/objtype.o
 .text.mp_builtin_issubclass
                0x00000000100899b8       0x24 build-MT7687Lite/py/objtype.o
 .text.mp_builtin_isinstance
                0x00000000100899dc       0x12 build-MT7687Lite/py/objtype.o
 .text.mp_instance_cast_to_native_base
                0x00000000100899ee       0x16 build-MT7687Lite/py/objtype.o
                0x00000000100899ee                mp_instance_cast_to_native_base
 .text.zip_iternext
                0x0000000010089a04       0x48 build-MT7687Lite/py/objzip.o
 .text.zip_make_new
                0x0000000010089a4c       0x4c build-MT7687Lite/py/objzip.o
 .text.op_getitem
                0x0000000010089a98       0x18 build-MT7687Lite/py/opmethods.o
 .text.op_setitem
                0x0000000010089ab0       0x1a build-MT7687Lite/py/opmethods.o
 .text.op_delitem
                0x0000000010089aca       0x18 build-MT7687Lite/py/opmethods.o
 .text.op_contains
                0x0000000010089ae2       0x18 build-MT7687Lite/py/opmethods.o
 .text.mp_seq_multiply
                0x0000000010089afa       0x28 build-MT7687Lite/py/sequence.o
                0x0000000010089afa                mp_seq_multiply
 *fill*         0x0000000010089b22        0x2 
 .text.mp_seq_get_fast_slice_indexes
                0x0000000010089b24       0xf0 build-MT7687Lite/py/sequence.o
                0x0000000010089b24                mp_seq_get_fast_slice_indexes
 .text.mp_seq_extract_slice
                0x0000000010089c14       0x44 build-MT7687Lite/py/sequence.o
                0x0000000010089c14                mp_seq_extract_slice
 .text.mp_seq_cmp_bytes
                0x0000000010089c58       0x6a build-MT7687Lite/py/sequence.o
                0x0000000010089c58                mp_seq_cmp_bytes
 *fill*         0x0000000010089cc2        0x2 
 .text.mp_seq_cmp_objs
                0x0000000010089cc4       0x98 build-MT7687Lite/py/sequence.o
                0x0000000010089cc4                mp_seq_cmp_objs
 .text.mp_seq_index_obj
                0x0000000010089d5c       0x68 build-MT7687Lite/py/sequence.o
                0x0000000010089d5c                mp_seq_index_obj
 .text.mp_seq_count_obj
                0x0000000010089dc4       0x2e build-MT7687Lite/py/sequence.o
                0x0000000010089dc4                mp_seq_count_obj
 *fill*         0x0000000010089df2        0x2 
 .text.mp_stream_close
                0x0000000010089df4       0x24 build-MT7687Lite/py/stream.o
                0x0000000010089df4                mp_stream_close
 .text.stream_flush
                0x0000000010089e18       0x24 build-MT7687Lite/py/stream.o
 .text.stream_unbuffered_readline
                0x0000000010089e3c       0xa8 build-MT7687Lite/py/stream.o
 .text.stream_unbuffered_readlines
                0x0000000010089ee4       0x32 build-MT7687Lite/py/stream.o
 .text.stream_seek
                0x0000000010089f16       0x52 build-MT7687Lite/py/stream.o
 .text.stream_tell
                0x0000000010089f68       0x18 build-MT7687Lite/py/stream.o
 .text.mp_stream_rw
                0x0000000010089f80       0x62 build-MT7687Lite/py/stream.o
                0x0000000010089f80                mp_stream_rw
 *fill*         0x0000000010089fe2        0x2 
 .text.stream_read_generic
                0x0000000010089fe4      0x198 build-MT7687Lite/py/stream.o
 .text.stream_read
                0x000000001008a17c        0x6 build-MT7687Lite/py/stream.o
 *fill*         0x000000001008a182        0x2 
 .text.stream_readinto
                0x000000001008a184       0x58 build-MT7687Lite/py/stream.o
 .text.mp_get_stream_raise
                0x000000001008a1dc       0x38 build-MT7687Lite/py/stream.o
                0x000000001008a1dc                mp_get_stream_raise
 .text.mp_stream_write
                0x000000001008a214       0x2c build-MT7687Lite/py/stream.o
                0x000000001008a214                mp_stream_write
 .text.stream_write_method
                0x000000001008a240       0x5e build-MT7687Lite/py/stream.o
 .text.mp_stream_write_adaptor
                0x000000001008a29e        0x6 build-MT7687Lite/py/stream.o
                0x000000001008a29e                mp_stream_write_adaptor
 .text.mp_stream_unbuffered_iter
                0x000000001008a2a4       0x20 build-MT7687Lite/py/stream.o
                0x000000001008a2a4                mp_stream_unbuffered_iter
 .text.mp_binary_get_size
                0x000000001008a2c4       0x4c build-MT7687Lite/py/binary.o
                0x000000001008a2c4                mp_binary_get_size
 .text.mp_binary_get_val_array
                0x000000001008a310       0x86 build-MT7687Lite/py/binary.o
                0x000000001008a310                mp_binary_get_val_array
 .text.mp_binary_get_int
                0x000000001008a396       0x5a build-MT7687Lite/py/binary.o
                0x000000001008a396                mp_binary_get_int
 .text.mp_binary_get_val
                0x000000001008a3f0       0x8e build-MT7687Lite/py/binary.o
                0x000000001008a3f0                mp_binary_get_val
 .text.mp_binary_set_int
                0x000000001008a47e       0x2e build-MT7687Lite/py/binary.o
                0x000000001008a47e                mp_binary_set_int
 .text.mp_binary_set_val
                0x000000001008a4ac       0xa4 build-MT7687Lite/py/binary.o
                0x000000001008a4ac                mp_binary_set_val
 .text.mp_binary_set_val_array_from_int
                0x000000001008a550       0x5a build-MT7687Lite/py/binary.o
                0x000000001008a550                mp_binary_set_val_array_from_int
 *fill*         0x000000001008a5aa        0x2 
 .text.mp_binary_set_val_array
                0x000000001008a5ac       0x5c build-MT7687Lite/py/binary.o
                0x000000001008a5ac                mp_binary_set_val_array
 .text.stat_file_py_or_mpy
                0x000000001008a608       0x32 build-MT7687Lite/py/builtinimport.o
 *fill*         0x000000001008a63a        0x2 
 .text.stat_dir_or_file
                0x000000001008a63c       0x28 build-MT7687Lite/py/builtinimport.o
 .text.do_load  0x000000001008a664       0xa6 build-MT7687Lite/py/builtinimport.o
 *fill*         0x000000001008a70a        0x2 
 .text.mp_builtin___import__
                0x000000001008a70c      0x354 build-MT7687Lite/py/builtinimport.o
                0x000000001008a70c                mp_builtin___import__
 .text.mp_obj_is_package
                0x000000001008aa60       0x18 build-MT7687Lite/py/builtinimport.o
                0x000000001008aa60                mp_obj_is_package
 .text.eval_exec_helper
                0x000000001008aa78       0x8c build-MT7687Lite/py/builtinevex.o
 .text.mp_builtin_eval
                0x000000001008ab04        0x6 build-MT7687Lite/py/builtinevex.o
 .text.mp_builtin_exec
                0x000000001008ab0a        0x6 build-MT7687Lite/py/builtinevex.o
 .text.mp_builtin_execfile
                0x000000001008ab10        0x6 build-MT7687Lite/py/builtinevex.o
 *fill*         0x000000001008ab16        0x2 
 .text.mp_builtin_help
                0x000000001008ab18       0xcc build-MT7687Lite/py/builtinhelp.o
 .text.mp_builtin_globals
                0x000000001008abe4        0xa build-MT7687Lite/py/modbuiltins.o
 .text.mp_builtin_abs
                0x000000001008abee        0x8 build-MT7687Lite/py/modbuiltins.o
 .text.mp_builtin_hash
                0x000000001008abf6        0x8 build-MT7687Lite/py/modbuiltins.o
 .text.mp_builtin_iter
                0x000000001008abfe        0x6 build-MT7687Lite/py/modbuiltins.o
 .text.mp_builtin_all
                0x000000001008ac04       0x30 build-MT7687Lite/py/modbuiltins.o
 .text.mp_builtin_any
                0x000000001008ac34       0x30 build-MT7687Lite/py/modbuiltins.o
 .text.mp_builtin_bin
                0x000000001008ac64       0x18 build-MT7687Lite/py/modbuiltins.o
 .text.mp_builtin_callable
                0x000000001008ac7c       0x1c build-MT7687Lite/py/modbuiltins.o
 .text.mp_builtin_chr
                0x000000001008ac98       0xa8 build-MT7687Lite/py/modbuiltins.o
 .text.mp_builtin_divmod
                0x000000001008ad40        0xa build-MT7687Lite/py/modbuiltins.o
 .text.mp_builtin_hex
                0x000000001008ad4a        0xa build-MT7687Lite/py/modbuiltins.o
 .text.mp_builtin_oct
                0x000000001008ad54        0xa build-MT7687Lite/py/modbuiltins.o
 .text.mp_builtin_sum
                0x000000001008ad5e       0x36 build-MT7687Lite/py/modbuiltins.o
 .text.mp_builtin_min_max
                0x000000001008ad94       0xe0 build-MT7687Lite/py/modbuiltins.o
 .text.mp_builtin_max
                0x000000001008ae74        0x6 build-MT7687Lite/py/modbuiltins.o
 .text.mp_builtin_min
                0x000000001008ae7a        0x6 build-MT7687Lite/py/modbuiltins.o
 .text.mp_builtin_ord
                0x000000001008ae80       0x58 build-MT7687Lite/py/modbuiltins.o
 .text.mp_builtin_print
                0x000000001008aed8       0x84 build-MT7687Lite/py/modbuiltins.o
 .text.mp_builtin___repl_print__
                0x000000001008af5c       0x48 build-MT7687Lite/py/modbuiltins.o
 .text.mp_builtin_repr
                0x000000001008afa4       0x2c build-MT7687Lite/py/modbuiltins.o
 .text.mp_builtin_round
                0x000000001008afd0       0x34 build-MT7687Lite/py/modbuiltins.o
 .text.mp_builtin_sorted
                0x000000001008b004       0x38 build-MT7687Lite/py/modbuiltins.o
 .text.mp_builtin_hasattr
                0x000000001008b03c       0x30 build-MT7687Lite/py/modbuiltins.o
 .text.mp_builtin_getattr
                0x000000001008b06c       0x44 build-MT7687Lite/py/modbuiltins.o
 .text.mp_builtin_setattr
                0x000000001008b0b0       0x20 build-MT7687Lite/py/modbuiltins.o
 .text.mp_builtin_delattr
                0x000000001008b0d0        0x6 build-MT7687Lite/py/modbuiltins.o
 *fill*         0x000000001008b0d6        0x2 
 .text.mp_builtin_dir
                0x000000001008b0d8       0x84 build-MT7687Lite/py/modbuiltins.o
 .text.mp_builtin_input
                0x000000001008b15c       0x58 build-MT7687Lite/py/modbuiltins.o
 .text.mp_builtin_next
                0x000000001008b1b4       0x1c build-MT7687Lite/py/modbuiltins.o
 .text.mp_builtin_pow
                0x000000001008b1d0       0x24 build-MT7687Lite/py/modbuiltins.o
 .text.mp_builtin_locals
                0x000000001008b1f4        0xa build-MT7687Lite/py/modbuiltins.o
 *fill*         0x000000001008b1fe        0x2 
 .text.mp_builtin___build_class__
                0x000000001008b200       0x98 build-MT7687Lite/py/modbuiltins.o
 .text.gc_disable
                0x000000001008b298       0x14 build-MT7687Lite/py/modgc.o
 .text.gc_enable
                0x000000001008b2ac       0x14 build-MT7687Lite/py/modgc.o
 .text.gc_isenabled
                0x000000001008b2c0       0x20 build-MT7687Lite/py/modgc.o
 .text.py_gc_collect
                0x000000001008b2e0       0x10 build-MT7687Lite/py/modgc.o
 .text.gc_mem_free
                0x000000001008b2f0       0x18 build-MT7687Lite/py/modgc.o
 .text.gc_mem_alloc
                0x000000001008b308       0x18 build-MT7687Lite/py/modgc.o
 .text.gc_threshold
                0x000000001008b320       0x40 build-MT7687Lite/py/modgc.o
 .text.mp_micropython_kbd_intr
                0x000000001008b360       0x14 build-MT7687Lite/py/modmicropython.o
 .text.mp_micropython_heap_unlock
                0x000000001008b374       0x10 build-MT7687Lite/py/modmicropython.o
 .text.mp_micropython_heap_lock
                0x000000001008b384       0x10 build-MT7687Lite/py/modmicropython.o
 .text.mp_micropython_opt_level
                0x000000001008b394       0x28 build-MT7687Lite/py/modmicropython.o
 .text.get_fmt_type
                0x000000001008b3bc       0x26 build-MT7687Lite/py/modstruct.o
 .text.get_fmt_num
                0x000000001008b3e2       0x32 build-MT7687Lite/py/modstruct.o
 .text.calc_size_items
                0x000000001008b414       0x74 build-MT7687Lite/py/modstruct.o
 .text.struct_calcsize
                0x000000001008b488       0x1a build-MT7687Lite/py/modstruct.o
 *fill*         0x000000001008b4a2        0x2 
 .text.struct_unpack_from
                0x000000001008b4a4       0xe8 build-MT7687Lite/py/modstruct.o
 .text.struct_pack_into_internal
                0x000000001008b58c       0xae build-MT7687Lite/py/modstruct.o
 *fill*         0x000000001008b63a        0x2 
 .text.struct_pack
                0x000000001008b63c       0x48 build-MT7687Lite/py/modstruct.o
 .text.struct_pack_into
                0x000000001008b684       0x58 build-MT7687Lite/py/modstruct.o
 .text.mp_sys_exit
                0x000000001008b6dc       0x1c build-MT7687Lite/py/modsys.o
 .text.mp_sys_print_exception
                0x000000001008b6f8       0x38 build-MT7687Lite/py/modsys.o
 .text.mp_errno_to_str
                0x000000001008b730       0x24 build-MT7687Lite/py/moduerrno.o
                0x000000001008b730                mp_errno_to_str
 .text.thread_lock_locked
                0x000000001008b754       0x1c build-MT7687Lite/py/modthread.o
 .text.mod_thread_allocate_lock
                0x000000001008b770       0x24 build-MT7687Lite/py/modthread.o
 .text.mod_thread_exit
                0x000000001008b794       0x10 build-MT7687Lite/py/modthread.o
 .text.thread_entry
                0x000000001008b7a4       0xa0 build-MT7687Lite/py/modthread.o
 .text.mod_thread_get_ident
                0x000000001008b844        0xe build-MT7687Lite/py/modthread.o
 *fill*         0x000000001008b852        0x2 
 .text.thread_lock_acquire
                0x000000001008b854       0x54 build-MT7687Lite/py/modthread.o
 .text.mod_thread_start_new_thread
                0x000000001008b8a8       0xdc build-MT7687Lite/py/modthread.o
 .text.mod_thread_stack_size
                0x000000001008b984       0x28 build-MT7687Lite/py/modthread.o
 .text.thread_lock_release
                0x000000001008b9ac       0x40 build-MT7687Lite/py/modthread.o
 .text.thread_lock___exit__
                0x000000001008b9ec        0x6 build-MT7687Lite/py/modthread.o
 *fill*         0x000000001008b9f2        0x2 
 .text.mp_execute_bytecode
                0x000000001008b9f4     0x104c build-MT7687Lite/py/vm.o
                0x000000001008b9f4                mp_execute_bytecode
 .text.mp_decode_uint
                0x000000001008ca40       0x1c build-MT7687Lite/py/bc.o
                0x000000001008ca40                mp_decode_uint
 .text.mp_decode_uint_value
                0x000000001008ca5c       0x14 build-MT7687Lite/py/bc.o
                0x000000001008ca5c                mp_decode_uint_value
 .text.mp_decode_uint_skip
                0x000000001008ca70        0xa build-MT7687Lite/py/bc.o
                0x000000001008ca70                mp_decode_uint_skip
 *fill*         0x000000001008ca7a        0x2 
 .text.mp_setup_code_state
                0x000000001008ca7c      0x2a4 build-MT7687Lite/py/bc.o
                0x000000001008ca7c                mp_setup_code_state
 .text.mp_opcode_format
                0x000000001008cd20       0x58 build-MT7687Lite/py/bc.o
                0x000000001008cd20                mp_opcode_format
 .text.str_startswith_word
                0x000000001008cd78       0x38 build-MT7687Lite/py/repl.o
 .text.mp_repl_continue_with_input
                0x000000001008cdb0      0x170 build-MT7687Lite/py/repl.o
                0x000000001008cdb0                mp_repl_continue_with_input
 .text.mp_repl_autocomplete
                0x000000001008cf20      0x1fc build-MT7687Lite/py/repl.o
                0x000000001008cf20                mp_repl_autocomplete
 .text.mp_small_int_mul_overflow
                0x000000001008d11c       0x46 build-MT7687Lite/py/smallint.o
                0x000000001008d11c                mp_small_int_mul_overflow
 .text.mp_small_int_modulo
                0x000000001008d162       0x1c build-MT7687Lite/py/smallint.o
                0x000000001008d162                mp_small_int_modulo
 .text.mp_small_int_floor_divide
                0x000000001008d17e       0x1c build-MT7687Lite/py/smallint.o
                0x000000001008d17e                mp_small_int_floor_divide
 .text.ujson_stream_next
                0x000000001008d19a       0x26 build-MT7687Lite/extmod/modujson.o
 .text.mod_ujson_load
                0x000000001008d1c0      0x308 build-MT7687Lite/extmod/modujson.o
 .text.mod_ujson_loads
                0x000000001008d4c8       0x3c build-MT7687Lite/extmod/modujson.o
 .text.mod_ujson_dump
                0x000000001008d504       0x2c build-MT7687Lite/extmod/modujson.o
 .text.mod_ujson_dumps
                0x000000001008d530       0x2c build-MT7687Lite/extmod/modujson.o
 .text.match_print
                0x000000001008d55c        0xc build-MT7687Lite/extmod/modure.o
 .text.re_print
                0x000000001008d568        0xc build-MT7687Lite/extmod/modure.o
 .text._compilecode
                0x000000001008d574      0x3a2 build-MT7687Lite/extmod/modure.o
 *fill*         0x000000001008d916        0x2 
 .text.match_group
                0x000000001008d918       0x4c build-MT7687Lite/extmod/modure.o
 .text.re1_5_sizecode
                0x000000001008d964       0x24 build-MT7687Lite/extmod/modure.o
                0x000000001008d964                re1_5_sizecode
 .text.re1_5_compilecode
                0x000000001008d988       0x58 build-MT7687Lite/extmod/modure.o
                0x000000001008d988                re1_5_compilecode
 .text.re1_5_dumpcode
                0x000000001008d9e0      0x178 build-MT7687Lite/extmod/modure.o
                0x000000001008d9e0                re1_5_dumpcode
 .text.mod_re_compile
                0x000000001008db58       0x5c build-MT7687Lite/extmod/modure.o
 .text._re1_5_classmatch
                0x000000001008dbb4       0x36 build-MT7687Lite/extmod/modure.o
                0x000000001008dbb4                _re1_5_classmatch
 .text._re1_5_namedclassmatch
                0x000000001008dbea       0x52 build-MT7687Lite/extmod/modure.o
                0x000000001008dbea                _re1_5_namedclassmatch
 .text.recursiveloop
                0x000000001008dc3c      0x12c build-MT7687Lite/extmod/modure.o
 .text.re1_5_recursiveloopprog
                0x000000001008dd68       0x1a build-MT7687Lite/extmod/modure.o
                0x000000001008dd68                re1_5_recursiveloopprog
 *fill*         0x000000001008dd82        0x2 
 .text.ure_exec.isra.3
                0x000000001008dd84       0x74 build-MT7687Lite/extmod/modure.o
 .text.re_match
                0x000000001008ddf8        0x6 build-MT7687Lite/extmod/modure.o
 .text.re_search
                0x000000001008ddfe        0x6 build-MT7687Lite/extmod/modure.o
 .text.mod_re_match
                0x000000001008de04       0x1c build-MT7687Lite/extmod/modure.o
 .text.mod_re_search
                0x000000001008de20       0x1c build-MT7687Lite/extmod/modure.o
 .text.re_split
                0x000000001008de3c       0xd8 build-MT7687Lite/extmod/modure.o
 .text.mod_binascii_hexlify
                0x000000001008df14       0x90 build-MT7687Lite/extmod/modubinascii.o
                0x000000001008df14                mod_binascii_hexlify
 .text.mod_binascii_b2a_base64
                0x000000001008dfa4      0x118 build-MT7687Lite/extmod/modubinascii.o
                0x000000001008dfa4                mod_binascii_b2a_base64
 .text.mod_binascii_unhexlify
                0x000000001008e0bc       0x78 build-MT7687Lite/extmod/modubinascii.o
                0x000000001008e0bc                mod_binascii_unhexlify
 .text.mod_binascii_a2b_base64
                0x000000001008e134       0xb8 build-MT7687Lite/extmod/modubinascii.o
                0x000000001008e134                mod_binascii_a2b_base64
 .text.poll_unregister
                0x000000001008e1ec       0x1c build-MT7687Lite/extmod/moduselect.o
 .text.poll_map_add
                0x000000001008e208       0x6c build-MT7687Lite/extmod/moduselect.o
 .text.poll_register
                0x000000001008e274       0x30 build-MT7687Lite/extmod/moduselect.o
 .text.select_poll
                0x000000001008e2a4       0x24 build-MT7687Lite/extmod/moduselect.o
 .text.poll_modify
                0x000000001008e2c8       0x30 build-MT7687Lite/extmod/moduselect.o
 .text.MP_MAP_SLOT_IS_FILLED.isra.0
                0x000000001008e2f8        0xe build-MT7687Lite/extmod/moduselect.o
 .text.poll_map_poll
                0x000000001008e306       0x74 build-MT7687Lite/extmod/moduselect.o
 *fill*         0x000000001008e37a        0x2 
 .text.poll_poll_internal
                0x000000001008e37c       0x68 build-MT7687Lite/extmod/moduselect.o
 .text.poll_ipoll
                0x000000001008e3e4       0x26 build-MT7687Lite/extmod/moduselect.o
 *fill*         0x000000001008e40a        0x2 
 .text.select_select
                0x000000001008e40c      0x140 build-MT7687Lite/extmod/moduselect.o
 .text.poll_poll
                0x000000001008e54c       0x72 build-MT7687Lite/extmod/moduselect.o
 *fill*         0x000000001008e5be        0x2 
 .text.poll_iternext
                0x000000001008e5c0       0x74 build-MT7687Lite/extmod/moduselect.o
 .text.mp_vfs_proxy_call
                0x000000001008e634       0x58 build-MT7687Lite/extmod/vfs.o
 .text.mp_vfs_umount
                0x000000001008e68c       0x8c build-MT7687Lite/extmod/vfs.o
                0x000000001008e68c                mp_vfs_umount
 .text.mp_vfs_getcwd
                0x000000001008e718       0x7c build-MT7687Lite/extmod/vfs.o
                0x000000001008e718                mp_vfs_getcwd
 .text.mp_vfs_ilistdir_it_iternext
                0x000000001008e794       0x74 build-MT7687Lite/extmod/vfs.o
 .text.mp_vfs_lookup_path
                0x000000001008e808       0x84 build-MT7687Lite/extmod/vfs.o
                0x000000001008e808                mp_vfs_lookup_path
 .text.mp_vfs_mount
                0x000000001008e88c       0xb0 build-MT7687Lite/extmod/vfs.o
                0x000000001008e88c                mp_vfs_mount
 .text.lookup_path
                0x000000001008e93c       0x38 build-MT7687Lite/extmod/vfs.o
 .text.mp_vfs_open
                0x000000001008e974       0x30 build-MT7687Lite/extmod/vfs.o
                0x000000001008e974                mp_vfs_open
 .text.mp_vfs_chdir
                0x000000001008e9a4       0x48 build-MT7687Lite/extmod/vfs.o
                0x000000001008e9a4                mp_vfs_chdir
 .text.mp_vfs_ilistdir
                0x000000001008e9ec       0x64 build-MT7687Lite/extmod/vfs.o
                0x000000001008e9ec                mp_vfs_ilistdir
 .text.mp_vfs_listdir
                0x000000001008ea50       0x32 build-MT7687Lite/extmod/vfs.o
                0x000000001008ea50                mp_vfs_listdir
 *fill*         0x000000001008ea82        0x2 
 .text.mp_vfs_mkdir
                0x000000001008ea84       0x3c build-MT7687Lite/extmod/vfs.o
                0x000000001008ea84                mp_vfs_mkdir
 .text.mp_vfs_remove
                0x000000001008eac0       0x1a build-MT7687Lite/extmod/vfs.o
                0x000000001008eac0                mp_vfs_remove
 .text.mp_vfs_rename
                0x000000001008eada       0x2e build-MT7687Lite/extmod/vfs.o
                0x000000001008eada                mp_vfs_rename
 .text.mp_vfs_rmdir
                0x000000001008eb08       0x1a build-MT7687Lite/extmod/vfs.o
                0x000000001008eb08                mp_vfs_rmdir
 .text.mp_vfs_stat
                0x000000001008eb22       0x3e build-MT7687Lite/extmod/vfs.o
                0x000000001008eb22                mp_vfs_stat
 .text.mp_vfs_import_stat
                0x000000001008eb60       0x78 build-MT7687Lite/extmod/vfs.o
                0x000000001008eb60                mp_vfs_import_stat
 .text.mp_reader_vfs_close
                0x000000001008ebd8       0x14 build-MT7687Lite/extmod/vfs_reader.o
 .text.mp_reader_vfs_readbyte
                0x000000001008ebec       0x42 build-MT7687Lite/extmod/vfs_reader.o
 *fill*         0x000000001008ec2e        0x2 
 .text.mp_reader_new_file
                0x000000001008ec30       0x64 build-MT7687Lite/extmod/vfs_reader.o
                0x000000001008ec30                mp_reader_new_file
 .text.vfs_fat_umount
                0x000000001008ec94        0x8 build-MT7687Lite/extmod/vfs_fat.o
 .text.vfs_fat_mount
                0x000000001008ec9c       0x64 build-MT7687Lite/extmod/vfs_fat.o
 .text.fat_vfs_statvfs
                0x000000001008ed00       0x5c build-MT7687Lite/extmod/vfs_fat.o
 .text.fat_vfs_stat
                0x000000001008ed5c       0xcc build-MT7687Lite/extmod/vfs_fat.o
 .text.fat_vfs_getcwd
                0x000000001008ee28       0x30 build-MT7687Lite/extmod/vfs_fat.o
 .text.fat_vfs_chdir
                0x000000001008ee58       0x2c build-MT7687Lite/extmod/vfs_fat.o
 .text.fat_vfs_mkdir
                0x000000001008ee84       0x2c build-MT7687Lite/extmod/vfs_fat.o
 .text.fat_vfs_ilistdir_func
                0x000000001008eeb0       0x68 build-MT7687Lite/extmod/vfs_fat.o
 .text.mp_vfs_fat_ilistdir_it_iternext
                0x000000001008ef18       0x7a build-MT7687Lite/extmod/vfs_fat.o
 *fill*         0x000000001008ef92        0x2 
 .text.fat_vfs_del
                0x000000001008ef94       0x10 build-MT7687Lite/extmod/vfs_fat.o
 .text.fat_vfs_make_new
                0x000000001008efa4       0xa4 build-MT7687Lite/extmod/vfs_fat.o
 .text.fat_vfs_mkfs
                0x000000001008f048       0x48 build-MT7687Lite/extmod/vfs_fat.o
 .text.fat_vfs_remove_internal
                0x000000001008f090       0x58 build-MT7687Lite/extmod/vfs_fat.o
 .text.fat_vfs_rename
                0x000000001008f0e8       0x58 build-MT7687Lite/extmod/vfs_fat.o
 .text.fat_vfs_remove
                0x000000001008f140        0x6 build-MT7687Lite/extmod/vfs_fat.o
 .text.fat_vfs_rmdir
                0x000000001008f146        0x6 build-MT7687Lite/extmod/vfs_fat.o
 .text.fat_vfs_import_stat
                0x000000001008f14c       0x40 build-MT7687Lite/extmod/vfs_fat.o
 .text.disk_read
                0x000000001008f18c       0x60 build-MT7687Lite/extmod/vfs_fat_diskio.o
                0x000000001008f18c                disk_read
 .text.disk_write
                0x000000001008f1ec       0x68 build-MT7687Lite/extmod/vfs_fat_diskio.o
                0x000000001008f1ec                disk_write
 .text.disk_ioctl
                0x000000001008f254       0xcc build-MT7687Lite/extmod/vfs_fat_diskio.o
                0x000000001008f254                disk_ioctl
 .text.file_obj___exit__
                0x000000001008f320        0x6 build-MT7687Lite/extmod/vfs_fat_file.o
 *fill*         0x000000001008f326        0x2 
 .text.file_obj_write
                0x000000001008f328       0x2c build-MT7687Lite/extmod/vfs_fat_file.o
 .text.file_obj_read
                0x000000001008f354       0x24 build-MT7687Lite/extmod/vfs_fat_file.o
 .text.file_open
                0x000000001008f378       0xcc build-MT7687Lite/extmod/vfs_fat_file.o
 .text.file_obj_make_new
                0x000000001008f444       0x2c build-MT7687Lite/extmod/vfs_fat_file.o
 .text.fatfs_builtin_open_self
                0x000000001008f470       0x20 build-MT7687Lite/extmod/vfs_fat_file.o
 .text.file_obj_print
                0x000000001008f490       0x20 build-MT7687Lite/extmod/vfs_fat_file.o
 .text.file_obj_ioctl
                0x000000001008f4b0       0x68 build-MT7687Lite/extmod/vfs_fat_file.o
 .text.time_ticks_diff
                0x000000001008f518       0x1a build-MT7687Lite/extmod/utime_mphal.o
 *fill*         0x000000001008f532        0x2 
 .text.time_ticks_add
                0x000000001008f534       0x20 build-MT7687Lite/extmod/utime_mphal.o
 .text.time_sleep_ms
                0x000000001008f554       0x18 build-MT7687Lite/extmod/utime_mphal.o
 .text.time_sleep_us
                0x000000001008f56c       0x18 build-MT7687Lite/extmod/utime_mphal.o
 .text.time_ticks_ms
                0x000000001008f584       0x18 build-MT7687Lite/extmod/utime_mphal.o
 .text.time_ticks_us
                0x000000001008f59c       0x18 build-MT7687Lite/extmod/utime_mphal.o
 .text.time_ticks_cpu
                0x000000001008f5b4       0x18 build-MT7687Lite/extmod/utime_mphal.o
 .text.strn_print_strn
                0x000000001008f5cc       0x22 build-MT7687Lite/lib/utils/printf.o
 *fill*         0x000000001008f5ee        0x2 
 .text.printf   0x000000001008f5f0       0x20 build-MT7687Lite/lib/utils/printf.o
                0x000000001008f5f0                printf
 .text.putchar  0x000000001008f610       0x1a build-MT7687Lite/lib/utils/printf.o
                0x000000001008f610                putchar
 .text.puts     0x000000001008f62a       0x24 build-MT7687Lite/lib/utils/printf.o
                0x000000001008f62a                puts
 *fill*         0x000000001008f64e        0x2 
 .text.vsnprintf
                0x000000001008f650       0x34 build-MT7687Lite/lib/utils/printf.o
                0x000000001008f650                __GI_vsnprintf
                0x000000001008f650                vsnprintf
 .text.snprintf
                0x000000001008f684       0x1a build-MT7687Lite/lib/utils/printf.o
                0x000000001008f684                snprintf
 *fill*         0x000000001008f69e        0x2 
 .text.init_sflash_filesystem
                0x000000001008f6a0       0xec build-MT7687Lite/main.o
 .text.TASK_MicroPython
                0x000000001008f78c       0xcc build-MT7687Lite/main.o
                0x000000001008f78c                TASK_MicroPython
 .text.startup.main
                0x000000001008f858       0x84 build-MT7687Lite/main.o
                0x000000001008f858                main
 .text.vApplicationGetIdleTaskMemory
                0x000000001008f8dc       0x18 build-MT7687Lite/main.o
                0x000000001008f8dc                vApplicationGetIdleTaskMemory
 .text.mp_hal_ticks_ms
                0x000000001008f8f4        0x4 build-MT7687Lite/mphalport.o
                0x000000001008f8f4                mp_hal_ticks_ms
 .text.mp_hal_ticks_us
                0x000000001008f8f8       0x24 build-MT7687Lite/mphalport.o
                0x000000001008f8f8                mp_hal_ticks_us
 .text.mp_hal_ticks_cpu
                0x000000001008f91c       0x10 build-MT7687Lite/mphalport.o
                0x000000001008f91c                mp_hal_ticks_cpu
 .text.mp_hal_delay_ms
                0x000000001008f92c        0x4 build-MT7687Lite/mphalport.o
                0x000000001008f92c                mp_hal_delay_ms
 .text.mp_hal_delay_us
                0x000000001008f930       0x18 build-MT7687Lite/mphalport.o
                0x000000001008f930                mp_hal_delay_us
 .text.mp_hal_stdout_tx_strn
                0x000000001008f948       0x50 build-MT7687Lite/mphalport.o
                0x000000001008f948                mp_hal_stdout_tx_strn
 .text.mp_hal_stdout_tx_str
                0x000000001008f998       0x14 build-MT7687Lite/mphalport.o
                0x000000001008f998                mp_hal_stdout_tx_str
 .text.mp_hal_stdout_tx_strn_cooked
                0x000000001008f9ac       0x50 build-MT7687Lite/mphalport.o
                0x000000001008f9ac                mp_hal_stdout_tx_strn_cooked
 .text.mp_hal_stdin_rx_chr
                0x000000001008f9fc       0x70 build-MT7687Lite/mphalport.o
                0x000000001008f9fc                mp_hal_stdin_rx_chr
 .text.freertos_entry
                0x000000001008fa6c       0x18 build-MT7687Lite/mpthreadport.o
 .text.mp_thread_gc_others
                0x000000001008fa84       0x4c build-MT7687Lite/mpthreadport.o
                0x000000001008fa84                mp_thread_gc_others
 .text.mp_thread_get_state
                0x000000001008fad0        0x8 build-MT7687Lite/mpthreadport.o
                0x000000001008fad0                mp_thread_get_state
 .text.mp_thread_set_state
                0x000000001008fad8        0xa build-MT7687Lite/mpthreadport.o
                0x000000001008fad8                mp_thread_set_state
 *fill*         0x000000001008fae2        0x2 
 .text.mp_thread_start
                0x000000001008fae4       0x24 build-MT7687Lite/mpthreadport.o
                0x000000001008fae4                mp_thread_start
 .text.mp_thread_create
                0x000000001008fb08       0xa0 build-MT7687Lite/mpthreadport.o
                0x000000001008fb08                mp_thread_create
 .text.mp_thread_finish
                0x000000001008fba8       0x24 build-MT7687Lite/mpthreadport.o
                0x000000001008fba8                mp_thread_finish
 .text.mp_thread_mutex_init
                0x000000001008fbcc       0x10 build-MT7687Lite/mpthreadport.o
                0x000000001008fbcc                mp_thread_mutex_init
 .text.mp_thread_init
                0x000000001008fbdc       0x48 build-MT7687Lite/mpthreadport.o
                0x000000001008fbdc                mp_thread_init
 .text.mp_thread_mutex_lock
                0x000000001008fc24        0x4 build-MT7687Lite/mpthreadport.o
                0x000000001008fc24                mp_thread_mutex_lock
 .text.mp_thread_mutex_unlock
                0x000000001008fc28        0x2 build-MT7687Lite/mpthreadport.o
                0x000000001008fc28                mp_thread_mutex_unlock
 .text.ff_cre_syncobj
                0x000000001008fc2a       0x26 build-MT7687Lite/fatfs_port.o
                0x000000001008fc2a                ff_cre_syncobj
 .text.ff_del_syncobj
                0x000000001008fc50        0xa build-MT7687Lite/fatfs_port.o
                0x000000001008fc50                ff_del_syncobj
 .text.ff_req_grant
                0x000000001008fc5a       0x16 build-MT7687Lite/fatfs_port.o
                0x000000001008fc5a                ff_req_grant
 .text.ff_rel_grant
                0x000000001008fc70        0xa build-MT7687Lite/fatfs_port.o
                0x000000001008fc70                ff_rel_grant
 .text.get_fattime
                0x000000001008fc7a        0x4 build-MT7687Lite/fatfs_port.o
                0x000000001008fc7a                get_fattime
 *fill*         0x000000001008fc7e        0x2 
 .text.SystemInit
                0x000000001008fc80       0xe8 build-MT7687Lite/chip/Source/system_MT7687.o
                0x000000001008fc80                SystemInit
 .text.PORT_Init
                0x000000001008fd68       0x70 build-MT7687Lite/chip/Source/MT7687_GPIO.o
                0x000000001008fd68                PORT_Init
 .text.GPIO_Init
                0x000000001008fdd8      0x134 build-MT7687Lite/chip/Source/MT7687_GPIO.o
                0x000000001008fdd8                GPIO_Init
 .text.GPIO_SetBit
                0x000000001008ff0c       0x28 build-MT7687Lite/chip/Source/MT7687_GPIO.o
                0x000000001008ff0c                GPIO_SetBit
 .text.GPIO_ClrBit
                0x000000001008ff34       0x28 build-MT7687Lite/chip/Source/MT7687_GPIO.o
                0x000000001008ff34                GPIO_ClrBit
 .text.GPIO_InvBit
                0x000000001008ff5c       0x30 build-MT7687Lite/chip/Source/MT7687_GPIO.o
                0x000000001008ff5c                GPIO_InvBit
 .text.GPIO_GetBit
                0x000000001008ff8c       0x28 build-MT7687Lite/chip/Source/MT7687_GPIO.o
                0x000000001008ff8c                GPIO_GetBit
 .text.UART_Init
                0x000000001008ffb4       0x4c build-MT7687Lite/chip/Source/MT7687_UART.o
                0x000000001008ffb4                UART_Init
 .text.TIMR_Start
                0x0000000010090000       0x24 build-MT7687Lite/chip/Source/MT7687_TIMR.o
                0x0000000010090000                TIMR_Start
 .text.TIMR_Stop
                0x0000000010090024       0x24 build-MT7687Lite/chip/Source/MT7687_TIMR.o
                0x0000000010090024                TIMR_Stop
 .text.TIMR_Init
                0x0000000010090048       0x58 build-MT7687Lite/chip/Source/MT7687_TIMR.o
                0x0000000010090048                TIMR_Init
 .text.TIMR_SetPeriod
                0x00000000100900a0       0x18 build-MT7687Lite/chip/Source/MT7687_TIMR.o
                0x00000000100900a0                TIMR_SetPeriod
 .text.PWM_ClockSelect
                0x00000000100900b8       0x18 build-MT7687Lite/chip/Source/MT7687_PWM.o
                0x00000000100900b8                PWM_ClockSelect
 .text.PWM_Init
                0x00000000100900d0       0x1e build-MT7687Lite/chip/Source/MT7687_PWM.o
                0x00000000100900d0                PWM_Init
 .text.PWM_Start
                0x00000000100900ee       0x18 build-MT7687Lite/chip/Source/MT7687_PWM.o
                0x00000000100900ee                PWM_Start
 .text.PWM_Stop
                0x0000000010090106       0x18 build-MT7687Lite/chip/Source/MT7687_PWM.o
                0x0000000010090106                PWM_Stop
 *fill*         0x000000001009011e        0x2 
 .text.PWM_GStart
                0x0000000010090120       0x10 build-MT7687Lite/chip/Source/MT7687_PWM.o
                0x0000000010090120                PWM_GStart
 .text.PWM_GStop
                0x0000000010090130       0x10 build-MT7687Lite/chip/Source/MT7687_PWM.o
                0x0000000010090130                PWM_GStop
 .text.PWM_SetOnTime
                0x0000000010090140       0x22 build-MT7687Lite/chip/Source/MT7687_PWM.o
                0x0000000010090140                PWM_SetOnTime
 .text.PWM_SetOffTime
                0x0000000010090162       0x22 build-MT7687Lite/chip/Source/MT7687_PWM.o
                0x0000000010090162                PWM_SetOffTime
 .text.vListInitialise
                0x0000000010090184       0x16 build-MT7687Lite/rtos/Source/list.o
                0x0000000010090184                vListInitialise
 .text.vListInitialiseItem
                0x000000001009019a        0x6 build-MT7687Lite/rtos/Source/list.o
                0x000000001009019a                vListInitialiseItem
 .text.vListInsertEnd
                0x00000000100901a0       0x18 build-MT7687Lite/rtos/Source/list.o
                0x00000000100901a0                vListInsertEnd
 .text.vListInsert
                0x00000000100901b8       0x2e build-MT7687Lite/rtos/Source/list.o
                0x00000000100901b8                vListInsert
 .text.uxListRemove
                0x00000000100901e6       0x20 build-MT7687Lite/rtos/Source/list.o
                0x00000000100901e6                uxListRemove
 .text.prvCopyDataToQueue
                0x0000000010090206       0x66 build-MT7687Lite/rtos/Source/queue.o
 .text.prvCopyDataFromQueue
                0x000000001009026c       0x26 build-MT7687Lite/rtos/Source/queue.o
 .text.prvUnlockQueue
                0x0000000010090292       0x70 build-MT7687Lite/rtos/Source/queue.o
 *fill*         0x0000000010090302        0x2 
 .text.xQueueGenericReset
                0x0000000010090304       0x6c build-MT7687Lite/rtos/Source/queue.o
                0x0000000010090304                xQueueGenericReset
 .text.xQueueGenericCreate
                0x0000000010090370       0x34 build-MT7687Lite/rtos/Source/queue.o
                0x0000000010090370                xQueueGenericCreate
 .text.xQueueGenericSend
                0x00000000100903a4       0xf4 build-MT7687Lite/rtos/Source/queue.o
                0x00000000100903a4                xQueueGenericSend
 .text.prvInitialiseMutex
                0x0000000010090498       0x14 build-MT7687Lite/rtos/Source/queue.o
 .text.xQueueCreateMutexStatic
                0x00000000100904ac       0x24 build-MT7687Lite/rtos/Source/queue.o
                0x00000000100904ac                xQueueCreateMutexStatic
 .text.xQueueGenericReceive
                0x00000000100904d0      0x134 build-MT7687Lite/rtos/Source/queue.o
                0x00000000100904d0                xQueueGenericReceive
 .text.vQueueDelete
                0x0000000010090604        0xc build-MT7687Lite/rtos/Source/queue.o
                0x0000000010090604                vQueueDelete
 .text.prvAddNewTaskToReadyList
                0x0000000010090610      0x104 build-MT7687Lite/rtos/Source/tasks.o
 .text.prvResetNextTaskUnblockTime
                0x0000000010090714       0x24 build-MT7687Lite/rtos/Source/tasks.o
 .text.prvInitialiseNewTask.isra.1
                0x0000000010090738       0x86 build-MT7687Lite/rtos/Source/tasks.o
 .text.prvDeleteTCB
                0x00000000100907be       0x20 build-MT7687Lite/rtos/Source/tasks.o
 *fill*         0x00000000100907de        0x2 
 .text.prvAddCurrentTaskToDelayedList.isra.3
                0x00000000100907e0       0x74 build-MT7687Lite/rtos/Source/tasks.o
 .text.xTaskCreateStatic
                0x0000000010090854       0x36 build-MT7687Lite/rtos/Source/tasks.o
                0x0000000010090854                xTaskCreateStatic
 *fill*         0x000000001009088a        0x2 
 .text.vTaskDelete
                0x000000001009088c       0xb8 build-MT7687Lite/rtos/Source/tasks.o
                0x000000001009088c                vTaskDelete
 .text.vTaskStartScheduler
                0x0000000010090944       0x6c build-MT7687Lite/rtos/Source/tasks.o
                0x0000000010090944                vTaskStartScheduler
 .text.vTaskSuspendAll
                0x00000000100909b0       0x10 build-MT7687Lite/rtos/Source/tasks.o
                0x00000000100909b0                vTaskSuspendAll
 .text.xTaskGetTickCount
                0x00000000100909c0        0xc build-MT7687Lite/rtos/Source/tasks.o
                0x00000000100909c0                xTaskGetTickCount
 .text.xTaskIncrementTick
                0x00000000100909cc      0x10c build-MT7687Lite/rtos/Source/tasks.o
                0x00000000100909cc                xTaskIncrementTick
 .text.xTaskResumeAll
                0x0000000010090ad8       0xd8 build-MT7687Lite/rtos/Source/tasks.o
                0x0000000010090ad8                xTaskResumeAll
 .text.vTaskDelay
                0x0000000010090bb0       0x2c build-MT7687Lite/rtos/Source/tasks.o
                0x0000000010090bb0                vTaskDelay
 .text.prvIdleTask
                0x0000000010090bdc       0x70 build-MT7687Lite/rtos/Source/tasks.o
 .text.vTaskSwitchContext
                0x0000000010090c4c       0x5c build-MT7687Lite/rtos/Source/tasks.o
                0x0000000010090c4c                vTaskSwitchContext
 .text.vTaskPlaceOnEventList
                0x0000000010090ca8       0x1c build-MT7687Lite/rtos/Source/tasks.o
                0x0000000010090ca8                vTaskPlaceOnEventList
 .text.xTaskRemoveFromEventList
                0x0000000010090cc4       0x70 build-MT7687Lite/rtos/Source/tasks.o
                0x0000000010090cc4                xTaskRemoveFromEventList
 .text.vTaskSetTimeOutState
                0x0000000010090d34       0x18 build-MT7687Lite/rtos/Source/tasks.o
                0x0000000010090d34                vTaskSetTimeOutState
 .text.xTaskCheckForTimeOut
                0x0000000010090d4c       0x48 build-MT7687Lite/rtos/Source/tasks.o
                0x0000000010090d4c                xTaskCheckForTimeOut
 .text.vTaskMissedYield
                0x0000000010090d94        0xc build-MT7687Lite/rtos/Source/tasks.o
                0x0000000010090d94                vTaskMissedYield
 .text.vTaskSetThreadLocalStoragePointer
                0x0000000010090da0       0x18 build-MT7687Lite/rtos/Source/tasks.o
                0x0000000010090da0                vTaskSetThreadLocalStoragePointer
 .text.pvTaskGetThreadLocalStoragePointer
                0x0000000010090db8       0x1c build-MT7687Lite/rtos/Source/tasks.o
                0x0000000010090db8                pvTaskGetThreadLocalStoragePointer
 .text.xTaskGetCurrentTaskHandle
                0x0000000010090dd4        0xc build-MT7687Lite/rtos/Source/tasks.o
                0x0000000010090dd4                xTaskGetCurrentTaskHandle
 .text.vTaskPriorityInherit
                0x0000000010090de0       0x8c build-MT7687Lite/rtos/Source/tasks.o
                0x0000000010090de0                vTaskPriorityInherit
 .text.xTaskPriorityDisinherit
                0x0000000010090e6c       0x70 build-MT7687Lite/rtos/Source/tasks.o
                0x0000000010090e6c                xTaskPriorityDisinherit
 .text.pvTaskIncrementMutexHeldCount
                0x0000000010090edc       0x18 build-MT7687Lite/rtos/Source/tasks.o
                0x0000000010090edc                pvTaskIncrementMutexHeldCount
 .text.prvTaskExitError
                0x0000000010090ef4       0x12 build-MT7687Lite/rtos/Source/portable/ARM_CM4/port.o
 *fill*         0x0000000010090f06        0x2 
 .text.prvPortStartFirstTask
                0x0000000010090f08       0x20 build-MT7687Lite/rtos/Source/portable/ARM_CM4/port.o
 .text.pxPortInitialiseStack
                0x0000000010090f28       0x24 build-MT7687Lite/rtos/Source/portable/ARM_CM4/port.o
                0x0000000010090f28                pxPortInitialiseStack
 *fill*         0x0000000010090f4c        0x4 
 .text.SVC_Handler
                0x0000000010090f50       0x28 build-MT7687Lite/rtos/Source/portable/ARM_CM4/port.o
                0x0000000010090f50                SVC_Handler
 .text.vPortEnterCritical
                0x0000000010090f78       0x20 build-MT7687Lite/rtos/Source/portable/ARM_CM4/port.o
                0x0000000010090f78                vPortEnterCritical
 .text.vPortExitCritical
                0x0000000010090f98       0x14 build-MT7687Lite/rtos/Source/portable/ARM_CM4/port.o
                0x0000000010090f98                vPortExitCritical
 *fill*         0x0000000010090fac        0x4 
 .text.PendSV_Handler
                0x0000000010090fb0       0x48 build-MT7687Lite/rtos/Source/portable/ARM_CM4/port.o
                0x0000000010090fb0                PendSV_Handler
 .text.SysTick_Handler
                0x0000000010090ff8       0x2c build-MT7687Lite/rtos/Source/portable/ARM_CM4/port.o
                0x0000000010090ff8                SysTick_Handler
 .text.vPortSetupTimerInterrupt
                0x0000000010091024       0x18 build-MT7687Lite/rtos/Source/portable/ARM_CM4/port.o
                0x0000000010091024                vPortSetupTimerInterrupt
 .text.xPortStartScheduler
                0x000000001009103c       0x30 build-MT7687Lite/rtos/Source/portable/ARM_CM4/port.o
                0x000000001009103c                xPortStartScheduler
 .text.prvInsertBlockIntoFreeList
                0x000000001009106c       0x48 build-MT7687Lite/rtos/Source/portable/MemMang/heap_4.o
 .text.pvPortMalloc
                0x00000000100910b4       0xf4 build-MT7687Lite/rtos/Source/portable/MemMang/heap_4.o
                0x00000000100910b4                pvPortMalloc
 .text.vPortFree
                0x00000000100911a8       0x4c build-MT7687Lite/rtos/Source/portable/MemMang/heap_4.o
                0x00000000100911a8                vPortFree
 .text.os_uname
                0x00000000100911f4        0x8 build-MT7687Lite/mods/moduos.o
 .text.os_sync  0x00000000100911fc        0x8 build-MT7687Lite/mods/moduos.o
 .text.os_urandom
                0x0000000010091204       0x34 build-MT7687Lite/mods/moduos.o
 .text.os_dupterm
                0x0000000010091238       0x6c build-MT7687Lite/mods/moduos.o
 .text.machine_reset
                0x00000000100912a4       0x24 build-MT7687Lite/mods/modmachine.o
 .text.machine_idle
                0x00000000100912c8        0xc build-MT7687Lite/mods/modmachine.o
 .text.machine_deepsleep
                0x00000000100912d4        0x8 build-MT7687Lite/mods/modmachine.o
 .text.machine_wake_reason
                0x00000000100912dc        0x4 build-MT7687Lite/mods/modmachine.o
 .text.machine_main
                0x00000000100912e0       0x34 build-MT7687Lite/mods/modmachine.o
 .text.machine_unique_id
                0x0000000010091314       0x28 build-MT7687Lite/mods/modmachine.o
 .text.machine_freq
                0x000000001009133c        0xc build-MT7687Lite/mods/modmachine.o
 .text.machine_info
                0x0000000010091348       0x60 build-MT7687Lite/mods/modmachine.o
 .text.machine_reset_cause
                0x00000000100913a8        0x4 build-MT7687Lite/mods/modmachine.o
 .text.machine_sleep
                0x00000000100913ac        0x8 build-MT7687Lite/mods/modmachine.o
 .text.time_time
                0x00000000100913b4        0x8 build-MT7687Lite/mods/modutime.o
 .text.time_localtime
                0x00000000100913bc       0x84 build-MT7687Lite/mods/modutime.o
 .text.time_mktime
                0x0000000010091440       0x74 build-MT7687Lite/mods/modutime.o
 .text.time_sleep
                0x00000000100914b4       0x1c build-MT7687Lite/mods/modutime.o
 .text.uart_irq_enable
                0x00000000100914d0       0x16 build-MT7687Lite/mods/pybuart.o
 .text.uart_irq_disable
                0x00000000100914e6        0x6 build-MT7687Lite/mods/pybuart.o
 .text.uart_irq_flags
                0x00000000100914ec        0x4 build-MT7687Lite/mods/pybuart.o
 .text.UARTGenericIntHandler
                0x00000000100914f0       0x94 build-MT7687Lite/mods/pybuart.o
 .text.uart_irq_new
                0x0000000010091584       0x4c build-MT7687Lite/mods/pybuart.o
 .text.pyb_uart_irq
                0x00000000100915d0       0x4c build-MT7687Lite/mods/pybuart.o
 .text.pyb_uart_sendbreak
                0x000000001009161c       0x34 build-MT7687Lite/mods/pybuart.o
 .text.pyb_uart_deinit
                0x0000000010091650       0x18 build-MT7687Lite/mods/pybuart.o
 .text.pyb_uart_init_helper
                0x0000000010091668       0xc8 build-MT7687Lite/mods/pybuart.o
 .text.pyb_uart_init
                0x0000000010091730       0x28 build-MT7687Lite/mods/pybuart.o
 .text.pyb_uart_make_new
                0x0000000010091758       0x64 build-MT7687Lite/mods/pybuart.o
 .text.pyb_uart_print
                0x00000000100917bc       0x94 build-MT7687Lite/mods/pybuart.o
 .text.uart_init0
                0x0000000010091850       0x18 build-MT7687Lite/mods/pybuart.o
                0x0000000010091850                uart_init0
 .text.uart_rx_any
                0x0000000010091868       0x2c build-MT7687Lite/mods/pybuart.o
                0x0000000010091868                uart_rx_any
 .text.pyb_uart_any
                0x0000000010091894        0xe build-MT7687Lite/mods/pybuart.o
 .text.pyb_uart_ioctl
                0x00000000100918a2       0x3a build-MT7687Lite/mods/pybuart.o
 .text.uart_rx_wait
                0x00000000100918dc       0x30 build-MT7687Lite/mods/pybuart.o
 .text.uart_rx_char
                0x000000001009190c       0x1e build-MT7687Lite/mods/pybuart.o
                0x000000001009190c                uart_rx_char
 .text.pyb_uart_read
                0x000000001009192a       0x40 build-MT7687Lite/mods/pybuart.o
 .text.uart_tx_char
                0x000000001009196a       0x12 build-MT7687Lite/mods/pybuart.o
                0x000000001009196a                uart_tx_char
 .text.uart_tx_strn
                0x000000001009197c       0x24 build-MT7687Lite/mods/pybuart.o
                0x000000001009197c                uart_tx_strn
 .text.pyb_uart_write
                0x00000000100919a0       0x14 build-MT7687Lite/mods/pybuart.o
 .text.UART1_Handler
                0x00000000100919b4        0x6 build-MT7687Lite/mods/pybuart.o
                0x00000000100919b4                UART1_Handler
 .text.UART2_Handler
                0x00000000100919ba        0x6 build-MT7687Lite/mods/pybuart.o
                0x00000000100919ba                UART2_Handler
 .text.pyb_flash_make_new
                0x00000000100919c0       0x1c build-MT7687Lite/mods/pybflash.o
 .text.flash_disk_init
                0x00000000100919dc       0x24 build-MT7687Lite/mods/pybflash.o
                0x00000000100919dc                flash_disk_init
 .text.flash_disk_flush
                0x0000000010091a00       0x30 build-MT7687Lite/mods/pybflash.o
                0x0000000010091a00                flash_disk_flush
 .text.flash_disk_read
                0x0000000010091a30       0x7c build-MT7687Lite/mods/pybflash.o
                0x0000000010091a30                flash_disk_read
 .text.pyb_flash_readblocks
                0x0000000010091aac       0x30 build-MT7687Lite/mods/pybflash.o
 .text.flash_disk_write
                0x0000000010091adc       0x88 build-MT7687Lite/mods/pybflash.o
                0x0000000010091adc                flash_disk_write
 .text.pyb_flash_writeblocks
                0x0000000010091b64       0x30 build-MT7687Lite/mods/pybflash.o
 .text.pyb_flash_ioctl
                0x0000000010091b94       0x44 build-MT7687Lite/mods/pybflash.o
 .text.pyb_flash_init_vfs
                0x0000000010091bd8       0x48 build-MT7687Lite/mods/pybflash.o
                0x0000000010091bd8                pyb_flash_init_vfs
 .text.pin_toggle
                0x0000000010091c20       0x10 build-MT7687Lite/mods/pybpin.o
 .text.pin_high
                0x0000000010091c30       0x10 build-MT7687Lite/mods/pybpin.o
 .text.pin_value
                0x0000000010091c40       0x3c build-MT7687Lite/mods/pybpin.o
 .text.pin_low  0x0000000010091c7c       0x10 build-MT7687Lite/mods/pybpin.o
 .text.pin_print
                0x0000000010091c8c       0x34 build-MT7687Lite/mods/pybpin.o
 .text.pin_find_by_index
                0x0000000010091cc0       0x34 build-MT7687Lite/mods/pybpin.o
                0x0000000010091cc0                pin_find_by_index
 .text.pin_config
                0x0000000010091cf4       0x3c build-MT7687Lite/mods/pybpin.o
                0x0000000010091cf4                pin_config
 .text.pin_make_new
                0x0000000010091d30       0x44 build-MT7687Lite/mods/pybpin.o
 .text.pyb_timer_stop
                0x0000000010091d74       0x10 build-MT7687Lite/mods/pybtimer.o
 .text.pyb_timer_start
                0x0000000010091d84       0x10 build-MT7687Lite/mods/pybtimer.o
 .text.pyb_timer_period
                0x0000000010091d94       0x2c build-MT7687Lite/mods/pybtimer.o
 .text.pyb_timer_make_new
                0x0000000010091dc0       0x88 build-MT7687Lite/mods/pybtimer.o
 .text.pyb_timer_print
                0x0000000010091e48       0x58 build-MT7687Lite/mods/pybtimer.o
 .text.GPT_Handler
                0x0000000010091ea0       0x74 build-MT7687Lite/mods/pybtimer.o
                0x0000000010091ea0                GPT_Handler
 .text.pyb_pwm_duty
                0x0000000010091f14       0x54 build-MT7687Lite/mods/pybpwm.o
 .text.pyb_pwm_frequency
                0x0000000010091f68       0x54 build-MT7687Lite/mods/pybpwm.o
 .text.pyb_pwm_gstop
                0x0000000010091fbc       0x10 build-MT7687Lite/mods/pybpwm.o
 .text.pyb_pwm_gstart
                0x0000000010091fcc       0x10 build-MT7687Lite/mods/pybpwm.o
 .text.pyb_pwm_stop
                0x0000000010091fdc       0x10 build-MT7687Lite/mods/pybpwm.o
 .text.pyb_pwm_start
                0x0000000010091fec       0x10 build-MT7687Lite/mods/pybpwm.o
 .text.pyb_pwm_make_new
                0x0000000010091ffc      0x198 build-MT7687Lite/mods/pybpwm.o
 .text.pyb_pwm_print
                0x0000000010092194       0x3c build-MT7687Lite/mods/pybpwm.o
 .text.gc_collect
                0x00000000100921d0       0x2c build-MT7687Lite/misc/gccollect.o
                0x00000000100921d0                gc_collect
 .text.mperror_signal_error
                0x00000000100921fc        0x2 build-MT7687Lite/misc/mperror.o
                0x00000000100921fc                mperror_signal_error
 *fill*         0x00000000100921fe        0x2 
 .text.mperror_heartbeat_switch_off
                0x0000000010092200       0x14 build-MT7687Lite/misc/mperror.o
                0x0000000010092200                mperror_heartbeat_switch_off
 .text.mperror_init0
                0x0000000010092214       0x10 build-MT7687Lite/misc/mperror.o
                0x0000000010092214                mperror_init0
 .text.__fatal_error
                0x0000000010092224        0x4 build-MT7687Lite/misc/mperror.o
                0x0000000010092224                __fatal_error
 .text.__assert_func
                0x0000000010092228       0x18 build-MT7687Lite/misc/mperror.o
                0x0000000010092228                __assert_func
 .text.nlr_jump_fail
                0x0000000010092240        0x4 build-MT7687Lite/misc/mperror.o
                0x0000000010092240                nlr_jump_fail
 .text.rng_get  0x0000000010092244       0x18 build-MT7687Lite/misc/random.o
                0x0000000010092244                rng_get
 .text.machine_rng_get
                0x000000001009225c        0xe build-MT7687Lite/misc/random.o
 *fill*         0x000000001009226a        0x2 
 .text.mp_irq_init
                0x000000001009226c       0x18 build-MT7687Lite/misc/mpirq.o
 .text.mp_irq_enable
                0x0000000010092284       0x18 build-MT7687Lite/misc/mpirq.o
 .text.mp_irq_disable
                0x000000001009229c       0x18 build-MT7687Lite/misc/mpirq.o
 .text.mp_irq_flags
                0x00000000100922b4       0x12 build-MT7687Lite/misc/mpirq.o
 *fill*         0x00000000100922c6        0x2 
 .text.mp_irq_init0
                0x00000000100922c8        0xc build-MT7687Lite/misc/mpirq.o
                0x00000000100922c8                mp_irq_init0
 .text.mp_irq_find
                0x00000000100922d4       0x2c build-MT7687Lite/misc/mpirq.o
                0x00000000100922d4                mp_irq_find
 .text.mp_irq_remove
                0x0000000010092300       0x1c build-MT7687Lite/misc/mpirq.o
                0x0000000010092300                mp_irq_remove
 .text.mp_irq_new
                0x000000001009231c       0x38 build-MT7687Lite/misc/mpirq.o
                0x000000001009231c                mp_irq_new
 .text.mp_irq_translate_priority
                0x0000000010092354       0x1c build-MT7687Lite/misc/mpirq.o
                0x0000000010092354                mp_irq_translate_priority
 .text.mp_irq_handler
                0x0000000010092370       0x5c build-MT7687Lite/misc/mpirq.o
                0x0000000010092370                mp_irq_handler
 .text.mp_irq_call
                0x00000000100923cc       0x24 build-MT7687Lite/misc/mpirq.o
 .text.ld_dword
                0x00000000100923f0       0x16 build-MT7687Lite/lib/oofatfs/ff.o
 .text.st_dword
                0x0000000010092406       0x10 build-MT7687Lite/lib/oofatfs/ff.o
 .text.clust2sect
                0x0000000010092416       0x16 build-MT7687Lite/lib/oofatfs/ff.o
 .text.sum_sfn  0x000000001009242c       0x1e build-MT7687Lite/lib/oofatfs/ff.o
 .text.ld_clust.isra.0
                0x000000001009244a       0x1c build-MT7687Lite/lib/oofatfs/ff.o
 .text.st_clust.isra.1
                0x0000000010092466       0x18 build-MT7687Lite/lib/oofatfs/ff.o
 .text.validate
                0x000000001009247e       0x54 build-MT7687Lite/lib/oofatfs/ff.o
 .text.sync_window.part.4
                0x00000000100924d2       0x46 build-MT7687Lite/lib/oofatfs/ff.o
 .text.sync_window
                0x0000000010092518        0xc build-MT7687Lite/lib/oofatfs/ff.o
 .text.sync_fs  0x0000000010092524       0xa0 build-MT7687Lite/lib/oofatfs/ff.o
 .text.move_window
                0x00000000100925c4       0x36 build-MT7687Lite/lib/oofatfs/ff.o
 *fill*         0x00000000100925fa        0x2 
 .text.check_fs
                0x00000000100925fc       0x80 build-MT7687Lite/lib/oofatfs/ff.o
 .text.find_volume
                0x000000001009267c      0x298 build-MT7687Lite/lib/oofatfs/ff.o
 .text.put_fat  0x0000000010092914       0xf8 build-MT7687Lite/lib/oofatfs/ff.o
 .text.get_fat.isra.9
                0x0000000010092a0c       0xb4 build-MT7687Lite/lib/oofatfs/ff.o
 .text.dir_sdi  0x0000000010092ac0       0x84 build-MT7687Lite/lib/oofatfs/ff.o
 .text.create_chain
                0x0000000010092b44       0xb0 build-MT7687Lite/lib/oofatfs/ff.o
 .text.remove_chain
                0x0000000010092bf4       0x6c build-MT7687Lite/lib/oofatfs/ff.o
 .text.unlock_fs
                0x0000000010092c60       0x16 build-MT7687Lite/lib/oofatfs/ff.o
 .text.get_fileinfo
                0x0000000010092c76       0xf4 build-MT7687Lite/lib/oofatfs/ff.o
 .text.dir_next
                0x0000000010092d6a       0xf2 build-MT7687Lite/lib/oofatfs/ff.o
 .text.dir_remove
                0x0000000010092e5c       0x4e build-MT7687Lite/lib/oofatfs/ff.o
 *fill*         0x0000000010092eaa        0x2 
 .text.dir_find
                0x0000000010092eac      0x158 build-MT7687Lite/lib/oofatfs/ff.o
 .text.dir_register
                0x0000000010093004      0x278 build-MT7687Lite/lib/oofatfs/ff.o
 .text.dir_read.constprop.12
                0x000000001009327c      0x124 build-MT7687Lite/lib/oofatfs/ff.o
 .text.follow_path
                0x00000000100933a0      0x2cc build-MT7687Lite/lib/oofatfs/ff.o
 .text.f_mount  0x000000001009366c       0x2c build-MT7687Lite/lib/oofatfs/ff.o
                0x000000001009366c                f_mount
 .text.f_umount
                0x0000000010093698       0x16 build-MT7687Lite/lib/oofatfs/ff.o
                0x0000000010093698                f_umount
 .text.f_open   0x00000000100936ae      0x1bc build-MT7687Lite/lib/oofatfs/ff.o
                0x00000000100936ae                f_open
 .text.f_read   0x000000001009386a      0x13e build-MT7687Lite/lib/oofatfs/ff.o
                0x000000001009386a                f_read
 .text.f_write  0x00000000100939a8      0x198 build-MT7687Lite/lib/oofatfs/ff.o
                0x00000000100939a8                f_write
 .text.f_sync   0x0000000010093b40       0x76 build-MT7687Lite/lib/oofatfs/ff.o
                0x0000000010093b40                f_sync
 .text.f_close  0x0000000010093bb6       0x28 build-MT7687Lite/lib/oofatfs/ff.o
                0x0000000010093bb6                f_close
 .text.f_chdir  0x0000000010093bde       0x5e build-MT7687Lite/lib/oofatfs/ff.o
                0x0000000010093bde                f_chdir
 .text.f_getcwd
                0x0000000010093c3c      0x116 build-MT7687Lite/lib/oofatfs/ff.o
                0x0000000010093c3c                f_getcwd
 .text.f_lseek  0x0000000010093d52      0x116 build-MT7687Lite/lib/oofatfs/ff.o
                0x0000000010093d52                f_lseek
 .text.f_opendir
                0x0000000010093e68       0x76 build-MT7687Lite/lib/oofatfs/ff.o
                0x0000000010093e68                f_opendir
 .text.f_closedir
                0x0000000010093ede       0x1e build-MT7687Lite/lib/oofatfs/ff.o
                0x0000000010093ede                f_closedir
 .text.f_readdir
                0x0000000010093efc       0x5a build-MT7687Lite/lib/oofatfs/ff.o
                0x0000000010093efc                f_readdir
 .text.f_stat   0x0000000010093f56       0x4a build-MT7687Lite/lib/oofatfs/ff.o
                0x0000000010093f56                f_stat
 .text.f_getfree
                0x0000000010093fa0       0xce build-MT7687Lite/lib/oofatfs/ff.o
                0x0000000010093fa0                f_getfree
 .text.f_unlink
                0x000000001009406e       0xae build-MT7687Lite/lib/oofatfs/ff.o
                0x000000001009406e                f_unlink
 .text.f_mkdir  0x000000001009411c      0x178 build-MT7687Lite/lib/oofatfs/ff.o
                0x000000001009411c                f_mkdir
 .text.f_rename
                0x0000000010094294      0x10e build-MT7687Lite/lib/oofatfs/ff.o
                0x0000000010094294                f_rename
 *fill*         0x00000000100943a2        0x2 
 .text.f_mkfs   0x00000000100943a4      0x554 build-MT7687Lite/lib/oofatfs/ff.o
                0x00000000100943a4                f_mkfs
 .text.ff_convert
                0x00000000100948f8       0x3c build-MT7687Lite/lib/oofatfs/option/unicode.o
                0x00000000100948f8                ff_convert
 .text.ff_wtoupper
                0x0000000010094934       0x84 build-MT7687Lite/lib/oofatfs/option/unicode.o
                0x0000000010094934                ff_wtoupper
 .text.memcpy   0x00000000100949b8       0x50 build-MT7687Lite/lib/libc/string0.o
                0x00000000100949b8                memcpy
 .text.memmove  0x0000000010094a08       0x2c build-MT7687Lite/lib/libc/string0.o
                0x0000000010094a08                memmove
 .text.memset   0x0000000010094a34       0x40 build-MT7687Lite/lib/libc/string0.o
                0x0000000010094a34                memset
 .text.memcmp   0x0000000010094a74       0x24 build-MT7687Lite/lib/libc/string0.o
                0x0000000010094a74                memcmp
 .text.strlen   0x0000000010094a98       0x10 build-MT7687Lite/lib/libc/string0.o
                0x0000000010094a98                strlen
 .text.strcmp   0x0000000010094aa8       0x30 build-MT7687Lite/lib/libc/string0.o
                0x0000000010094aa8                strcmp
 .text.strncmp  0x0000000010094ad8       0x42 build-MT7687Lite/lib/libc/string0.o
                0x0000000010094ad8                strncmp
 .text.strchr   0x0000000010094b1a       0x1a build-MT7687Lite/lib/libc/string0.o
                0x0000000010094b1a                strchr
 .text.readline_auto_indent
                0x0000000010094b34       0x94 build-MT7687Lite/lib/mp-readline/readline.o
 .text.mp_hal_move_cursor_back
                0x0000000010094bc8       0x3c build-MT7687Lite/lib/mp-readline/readline.o
 .text.readline_init0
                0x0000000010094c04       0x10 build-MT7687Lite/lib/mp-readline/readline.o
                0x0000000010094c04                readline_init0
 .text.readline_init
                0x0000000010094c14       0x2c build-MT7687Lite/lib/mp-readline/readline.o
                0x0000000010094c14                readline_init
 .text.readline_push_history
                0x0000000010094c40       0x54 build-MT7687Lite/lib/mp-readline/readline.o
                0x0000000010094c40                readline_push_history
 .text.readline_process_char
                0x0000000010094c94      0x2b0 build-MT7687Lite/lib/mp-readline/readline.o
                0x0000000010094c94                readline_process_char
 .text.readline
                0x0000000010094f44       0x14 build-MT7687Lite/lib/mp-readline/readline.o
                0x0000000010094f44                readline
 .text.timeutils_is_leap_year
                0x0000000010094f58       0x28 build-MT7687Lite/lib/timeutils/timeutils.o
                0x0000000010094f58                timeutils_is_leap_year
 .text.timeutils_days_in_month
                0x0000000010094f80       0x28 build-MT7687Lite/lib/timeutils/timeutils.o
                0x0000000010094f80                timeutils_days_in_month
 .text.timeutils_year_day
                0x0000000010094fa8       0x20 build-MT7687Lite/lib/timeutils/timeutils.o
                0x0000000010094fa8                timeutils_year_day
 .text.timeutils_seconds_since_2000_to_struct_time
                0x0000000010094fc8      0x12c build-MT7687Lite/lib/timeutils/timeutils.o
                0x0000000010094fc8                timeutils_seconds_since_2000_to_struct_time
 .text.timeutils_seconds_since_2000
                0x00000000100950f4       0x60 build-MT7687Lite/lib/timeutils/timeutils.o
                0x00000000100950f4                timeutils_seconds_since_2000
 .text.timeutils_mktime
                0x0000000010095154       0xc6 build-MT7687Lite/lib/timeutils/timeutils.o
                0x0000000010095154                timeutils_mktime
 *fill*         0x000000001009521a        0x2 
 .text.parse_compile_execute
                0x000000001009521c      0x120 build-MT7687Lite/lib/utils/pyexec.o
 .text.pyexec_raw_repl
                0x000000001009533c       0x9c build-MT7687Lite/lib/utils/pyexec.o
                0x000000001009533c                pyexec_raw_repl
 .text.pyexec_friendly_repl
                0x00000000100953d8      0x124 build-MT7687Lite/lib/utils/pyexec.o
                0x00000000100953d8                pyexec_friendly_repl
 .text.pyexec_file
                0x00000000100954fc        0x8 build-MT7687Lite/lib/utils/pyexec.o
                0x00000000100954fc                pyexec_file
 .text.mp_hal_set_interrupt_char
                0x0000000010095504       0x1c build-MT7687Lite/lib/utils/interrupt_char.o
                0x0000000010095504                mp_hal_set_interrupt_char
 .text.mp_keyboard_interrupt
                0x0000000010095520       0x10 build-MT7687Lite/lib/utils/interrupt_char.o
                0x0000000010095520                mp_keyboard_interrupt
 .text.stdio_obj___exit__
                0x0000000010095530        0x8 build-MT7687Lite/lib/utils/sys_stdio_mphal.o
 .text.stdio_obj_print
                0x0000000010095538        0xc build-MT7687Lite/lib/utils/sys_stdio_mphal.o
                0x0000000010095538                stdio_obj_print
 .text.stdio_write
                0x0000000010095544       0x24 build-MT7687Lite/lib/utils/sys_stdio_mphal.o
 .text.stdio_read
                0x0000000010095568       0x2e build-MT7687Lite/lib/utils/sys_stdio_mphal.o
 *fill*         0x0000000010095596        0x2 
 .text.stdio_read.__stub
                0x0000000010095598        0x8 linker stubs
 *(.rodata*)
 *fill*         0x00000000100955a0        0x0 
 .rodata.__func__.8410
                0x00000000100955a0        0x8 build-MT7687Lite/py/gc.o
 .rodata.__func__.8522
                0x00000000100955a8        0x8 build-MT7687Lite/py/gc.o
 .rodata.__func__.8539
                0x00000000100955b0        0xb build-MT7687Lite/py/gc.o
 *fill*         0x00000000100955bb        0x1 
 .rodata.gc_dump_info.str1.4
                0x00000000100955bc       0x69 build-MT7687Lite/py/gc.o
 *fill*         0x0000000010095625        0x3 
 .rodata.gc_free.part.0.str1.4
                0x0000000010095628       0x3f build-MT7687Lite/py/gc.o
 *fill*         0x0000000010095667        0x1 
 .rodata.gc_init.str1.4
                0x0000000010095668       0x64 build-MT7687Lite/py/gc.o
 .rodata.gc_realloc.str1.4
                0x00000000100956cc       0x1c build-MT7687Lite/py/gc.o
 .rodata        0x00000000100956e8        0x6 build-MT7687Lite/py/qstr.o
 .rodata.__func__.8201
                0x00000000100956ee        0xf build-MT7687Lite/py/qstr.o
 *fill*         0x00000000100956fd        0x3 
 .rodata.mp_qstr_const_pool
                0x0000000010095700      0x784 build-MT7687Lite/py/qstr.o
                0x0000000010095700                mp_qstr_const_pool
 .rodata.qstr_from_strn.str1.1
                0x0000000010095e84       0x3d build-MT7687Lite/py/qstr.o
 .rodata.str1.1
                0x0000000010095ec1     0x12ae build-MT7687Lite/py/qstr.o
 .rodata.__func__.8429
                0x000000001009716f        0xe build-MT7687Lite/py/vstr.o
 .rodata.vstr_add_char.str1.1
                0x000000001009717d       0x1d build-MT7687Lite/py/vstr.o
 .rodata.__func__.8679
                0x000000001009719a       0x10 build-MT7687Lite/py/mpprint.o
 .rodata.__func__.8744
                0x00000000100971aa        0xb build-MT7687Lite/py/mpprint.o
 *fill*         0x00000000100971b5        0x3 
 .rodata.mp_plat_print
                0x00000000100971b8        0x8 build-MT7687Lite/py/mpprint.o
                0x00000000100971b8                mp_plat_print
 .rodata.mp_print_mp_int.str1.1
                0x00000000100971c0       0x46 build-MT7687Lite/py/mpprint.o
                                         0x47 (size before relaxing)
 .rodata.mp_vprintf.str1.1
                0x0000000010097206       0x39 build-MT7687Lite/py/mpprint.o
 .rodata.pad_spaces
                0x000000001009723f       0x11 build-MT7687Lite/py/mpprint.o
 .rodata.pad_zeroes
                0x0000000010097250       0x11 build-MT7687Lite/py/mpprint.o
 .rodata.attr   0x0000000010097261       0x80 build-MT7687Lite/py/unicode.o
 .rodata.__func__.6895
                0x00000000100972e1        0xb build-MT7687Lite/py/mpz.o
 .rodata.__func__.7018
                0x00000000100972ec        0xd build-MT7687Lite/py/mpz.o
 .rodata.__func__.7022
                0x00000000100972f9        0xa build-MT7687Lite/py/mpz.o
 .rodata.__func__.7052
                0x0000000010097303       0x11 build-MT7687Lite/py/mpz.o
 .rodata.__func__.7175
                0x0000000010097314       0x10 build-MT7687Lite/py/mpz.o
 .rodata.__func__.7230
                0x0000000010097324       0x10 build-MT7687Lite/py/mpz.o
 .rodata.mpz_as_str_inpl.str1.1
                0x0000000010097334       0x24 build-MT7687Lite/py/mpz.o
 .rodata.mpz_clone.str1.1
                0x0000000010097358       0x10 build-MT7687Lite/py/mpz.o
 .rodata.mpz_divmod_inpl.str1.1
                0x0000000010097368       0x12 build-MT7687Lite/py/mpz.o
 .rodata.mpz_need_dig.str1.1
                0x000000001009737a       0x1d build-MT7687Lite/py/mpz.o
 .rodata.mpz_or_inpl.str1.1
                0x0000000010097397        0xc build-MT7687Lite/py/mpz.o
 .rodata.mpz_set_from_str.str1.1
                0x00000000100973a3        0xb build-MT7687Lite/py/mpz.o
 .rodata.mp_lexer_to_next.str1.1
                0x00000000100973ae       0x56 build-MT7687Lite/py/lexer.o
 .rodata.str1.1
                0x0000000010097404       0x76 build-MT7687Lite/py/lexer.o
                                         0xbc (size before relaxing)
 .rodata.tok_enc_kind
                0x000000001009747a       0x2a build-MT7687Lite/py/lexer.o
 .rodata.tok_kw
                0x00000000100974a4       0x88 build-MT7687Lite/py/lexer.o
 .rodata.__func__.10045
                0x000000001009752c        0x9 build-MT7687Lite/py/parse.o
 .rodata.__func__.9882
                0x0000000010097535       0x13 build-MT7687Lite/py/parse.o
 .rodata.__func__.9910
                0x0000000010097548        0xb build-MT7687Lite/py/parse.o
 .rodata.__func__.9915
                0x0000000010097553        0xc build-MT7687Lite/py/parse.o
 .rodata.__func__.9993
                0x000000001009755f        0xf build-MT7687Lite/py/parse.o
 *fill*         0x000000001009756e        0x2 
 .rodata.mp_constants_map
                0x0000000010097570        0xc build-MT7687Lite/py/parse.o
 .rodata.mp_constants_table
                0x000000001009757c        0x8 build-MT7687Lite/py/parse.o
 .rodata.mp_parse.str1.1
                0x0000000010097584       0xf9 build-MT7687Lite/py/parse.o
 .rodata.peek_result.str1.1
                0x000000001009767d       0x30 build-MT7687Lite/py/parse.o
 .rodata.pop_result.str1.1
                0x00000000100976ad       0x1d build-MT7687Lite/py/parse.o
 .rodata.push_result_rule.str1.1
                0x00000000100976ca       0x74 build-MT7687Lite/py/parse.o
 .rodata.push_rule_from_arg.str1.1
                0x000000001009773e       0x5f build-MT7687Lite/py/parse.o
 .rodata.rule_act_table
                0x000000001009779d       0xab build-MT7687Lite/py/parse.o
 .rodata.rule_arg_combined_table
                0x0000000010097848      0x360 build-MT7687Lite/py/parse.o
 .rodata.rule_arg_offset_table
                0x0000000010097ba8       0xab build-MT7687Lite/py/parse.o
 .rodata.token_to_op.9984
                0x0000000010097c53        0xb build-MT7687Lite/py/parse.o
 .rodata.__func__.7922
                0x0000000010097c5e        0xa build-MT7687Lite/py/scope.o
 .rodata.__func__.7951
                0x0000000010097c68       0x1c build-MT7687Lite/py/scope.o
 .rodata.scope_find_local_and_close_over.str1.1
                0x0000000010097c84       0x51 build-MT7687Lite/py/scope.o
 .rodata.scope_new.str1.1
                0x0000000010097cd5       0x2d build-MT7687Lite/py/scope.o
 .rodata.scope_simple_name_table
                0x0000000010097d02        0x7 build-MT7687Lite/py/scope.o
 .rodata.CSWTCH.169
                0x0000000010097d09        0xb build-MT7687Lite/py/compile.o
 .rodata.CSWTCH.174
                0x0000000010097d14        0xc build-MT7687Lite/py/compile.o
 .rodata.__func__.10013
                0x0000000010097d20        0xd build-MT7687Lite/py/compile.o
 .rodata.__func__.10027
                0x0000000010097d2d       0x11 build-MT7687Lite/py/compile.o
 .rodata.__func__.10076
                0x0000000010097d3e       0x16 build-MT7687Lite/py/compile.o
 .rodata.__func__.10084
                0x0000000010097d54       0x13 build-MT7687Lite/py/compile.o
 .rodata.__func__.10093
                0x0000000010097d67       0x15 build-MT7687Lite/py/compile.o
 .rodata.__func__.10100
                0x0000000010097d7c       0x13 build-MT7687Lite/py/compile.o
 .rodata.__func__.10128
                0x0000000010097d8f       0x12 build-MT7687Lite/py/compile.o
 .rodata.__func__.10169
                0x0000000010097da1        0xd build-MT7687Lite/py/compile.o
 .rodata.__func__.10180
                0x0000000010097dae       0x20 build-MT7687Lite/py/compile.o
 .rodata.__func__.10203
                0x0000000010097dce       0x18 build-MT7687Lite/py/compile.o
 .rodata.__func__.10214
                0x0000000010097de6        0xe build-MT7687Lite/py/compile.o
 .rodata.__func__.10253
                0x0000000010097df4       0x15 build-MT7687Lite/py/compile.o
 .rodata.__func__.9389
                0x0000000010097e09       0x1e build-MT7687Lite/py/compile.o
 .rodata.__func__.9471
                0x0000000010097e27        0xa build-MT7687Lite/py/compile.o
 .rodata.__func__.9492
                0x0000000010097e31       0x13 build-MT7687Lite/py/compile.o
 .rodata.__func__.9514
                0x0000000010097e44        0x9 build-MT7687Lite/py/compile.o
 .rodata.__func__.9540
                0x0000000010097e4d       0x19 build-MT7687Lite/py/compile.o
 .rodata.__func__.9557
                0x0000000010097e66       0x1e build-MT7687Lite/py/compile.o
 .rodata.__func__.9602
                0x0000000010097e84       0x12 build-MT7687Lite/py/compile.o
 .rodata.__func__.9635
                0x0000000010097e96        0xb build-MT7687Lite/py/compile.o
 .rodata.__func__.9655
                0x0000000010097ea1       0x18 build-MT7687Lite/py/compile.o
 .rodata.__func__.9679
                0x0000000010097eb9        0xf build-MT7687Lite/py/compile.o
 .rodata.__func__.9717
                0x0000000010097ec8       0x14 build-MT7687Lite/py/compile.o
 .rodata.__func__.9784
                0x0000000010097edc       0x10 build-MT7687Lite/py/compile.o
 .rodata.__func__.9817
                0x0000000010097eec       0x21 build-MT7687Lite/py/compile.o
 .rodata.__func__.9850
                0x0000000010097f0d       0x13 build-MT7687Lite/py/compile.o
 .rodata.__func__.9869
                0x0000000010097f20       0x14 build-MT7687Lite/py/compile.o
 .rodata.__func__.9874
                0x0000000010097f34       0x11 build-MT7687Lite/py/compile.o
 .rodata.__func__.9894
                0x0000000010097f45       0x12 build-MT7687Lite/py/compile.o
 .rodata.__func__.9904
                0x0000000010097f57       0x12 build-MT7687Lite/py/compile.o
 .rodata.__func__.9932
                0x0000000010097f69       0x15 build-MT7687Lite/py/compile.o
 .rodata.__func__.9975
                0x0000000010097f7e       0x13 build-MT7687Lite/py/compile.o
 .rodata.c_assign.str1.1
                0x0000000010097f91       0xc6 build-MT7687Lite/py/compile.o
                                         0xea (size before relaxing)
 .rodata.c_assign_tuple.str1.1
                0x0000000010098057       0x1a build-MT7687Lite/py/compile.o
 .rodata.c_del_stmt.str1.1
                0x0000000010098071       0x71 build-MT7687Lite/py/compile.o
 .rodata.close_over_variables_etc.str1.1
                0x00000000100980e2       0x3a build-MT7687Lite/py/compile.o
 .rodata.compile_atom_brace.str1.1
                0x000000001009811c       0x2f build-MT7687Lite/py/compile.o
 .rodata.compile_atom_bracket.str1.1
                0x000000001009814b       0x26 build-MT7687Lite/py/compile.o
 .rodata.compile_atom_expr_normal.str1.1
                0x0000000010098171       0x18 build-MT7687Lite/py/compile.o
 .rodata.compile_atom_paren.str1.1
                0x0000000010098189       0x26 build-MT7687Lite/py/compile.o
 .rodata.compile_break_cont_stmt.str1.1
                0x00000000100981af       0x69 build-MT7687Lite/py/compile.o
 .rodata.compile_comparison.str1.1
                0x0000000010098218       0x3d build-MT7687Lite/py/compile.o
 .rodata.compile_decorated.str1.1
                0x0000000010098255       0xa9 build-MT7687Lite/py/compile.o
 .rodata.compile_decrease_except_level.isra.5.str1.1
                0x00000000100982fe       0x1b build-MT7687Lite/py/compile.o
 .rodata.compile_expr_stmt.str1.1
                0x0000000010098319       0x27 build-MT7687Lite/py/compile.o
 .rodata.compile_factor_2.str1.1
                0x0000000010098340       0x19 build-MT7687Lite/py/compile.o
 .rodata.compile_for_stmt.str1.1
                0x0000000010098340       0x24 build-MT7687Lite/py/compile.o
 .rodata.compile_funcdef_lambdef_param.str1.1
                0x0000000010098364       0x4d build-MT7687Lite/py/compile.o
 *fill*         0x00000000100983b1        0x3 
 .rodata.compile_function
                0x00000000100983b4       0xe0 build-MT7687Lite/py/compile.o
 .rodata.compile_global_nonlocal_stmt.str1.1
                0x0000000010098494       0x83 build-MT7687Lite/py/compile.o
 .rodata.compile_if_stmt.str1.1
                0x0000000010098517       0x3a build-MT7687Lite/py/compile.o
 .rodata.compile_import_from.str1.1
                0x0000000010098551       0x66 build-MT7687Lite/py/compile.o
 .rodata.compile_node.str1.1
                0x00000000100985b7       0x32 build-MT7687Lite/py/compile.o
 .rodata.compile_return_stmt.str1.1
                0x00000000100985e9       0x1a build-MT7687Lite/py/compile.o
 .rodata.compile_scope.str1.1
                0x0000000010098603      0x16d build-MT7687Lite/py/compile.o
 .rodata.compile_scope_comp_iter.str1.1
                0x0000000010098770       0x4b build-MT7687Lite/py/compile.o
 .rodata.compile_scope_func_lambda_param.str1.1
                0x00000000100987bb       0x7e build-MT7687Lite/py/compile.o
                                         0xa9 (size before relaxing)
 .rodata.compile_star_expr.str1.1
                0x0000000010098839       0x1d build-MT7687Lite/py/compile.o
 .rodata.compile_subscript.str1.1
                0x0000000010098856       0x85 build-MT7687Lite/py/compile.o
 .rodata.compile_term.str1.1
                0x00000000100988db       0x1c build-MT7687Lite/py/compile.o
 .rodata.compile_test_if_expr.str1.1
                0x00000000100988f7       0x3d build-MT7687Lite/py/compile.o
 .rodata.compile_trailer_paren_helper.str1.1
                0x0000000010098934       0x8d build-MT7687Lite/py/compile.o
 .rodata.compile_try_except.str1.1
                0x00000000100989c1       0x5e build-MT7687Lite/py/compile.o
 .rodata.compile_try_finally.str1.1
                0x0000000010098a1f       0x1f build-MT7687Lite/py/compile.o
 .rodata.compile_with_stmt.str1.1
                0x0000000010098a3e        0x6 build-MT7687Lite/py/compile.o
 .rodata.compile_yield_expr.str1.1
                0x0000000010098a44       0x19 build-MT7687Lite/py/compile.o
 .rodata.do_import_name.isra.18.str1.1
                0x0000000010098a5d       0x31 build-MT7687Lite/py/compile.o
 .rodata.mp_compile.str1.1
                0x0000000010098a8e       0x21 build-MT7687Lite/py/compile.o
 .rodata.__func__.8530
                0x0000000010098aaf       0x15 build-MT7687Lite/py/emitcommon.o
 .rodata.mp_emit_common_id_op.str1.1
                0x0000000010098ac4       0x55 build-MT7687Lite/py/emitcommon.o
                                         0x60 (size before relaxing)
 .rodata.__func__.8916
                0x0000000010098b19       0x20 build-MT7687Lite/py/emitbc.o
 .rodata.__func__.8930
                0x0000000010098b39       0x1a build-MT7687Lite/py/emitbc.o
 .rodata.__func__.8948
                0x0000000010098b53       0x1f build-MT7687Lite/py/emitbc.o
 .rodata.__func__.8990
                0x0000000010098b72       0x1e build-MT7687Lite/py/emitbc.o
 .rodata.__func__.9024
                0x0000000010098b90       0x16 build-MT7687Lite/py/emitbc.o
 .rodata.__func__.9041
                0x0000000010098ba6       0x14 build-MT7687Lite/py/emitbc.o
 .rodata.__func__.9049
                0x0000000010098bba       0x1d build-MT7687Lite/py/emitbc.o
 .rodata.__func__.9064
                0x0000000010098bd7       0x18 build-MT7687Lite/py/emitbc.o
 .rodata.__func__.9079
                0x0000000010098bef       0x1a build-MT7687Lite/py/emitbc.o
 .rodata.__func__.9258
                0x0000000010098c09       0x18 build-MT7687Lite/py/emitbc.o
 .rodata.__func__.9286
                0x0000000010098c21       0x19 build-MT7687Lite/py/emitbc.o
 .rodata.emit_get_cur_to_write_bytecode.str1.1
                0x0000000010098c3a       0x42 build-MT7687Lite/py/emitbc.o
 .rodata.emit_get_cur_to_write_code_info.str1.1
                0x0000000010098c7c       0x56 build-MT7687Lite/py/emitbc.o
 .rodata.emit_write_code_info_qstr.str1.1
                0x0000000010098cd2       0x11 build-MT7687Lite/py/emitbc.o
 .rodata.mp_emit_bc_adjust_stack_size.str1.1
                0x0000000010098ce3       0x28 build-MT7687Lite/py/emitbc.o
 .rodata.mp_emit_bc_end_pass.str1.1
                0x0000000010098d0b       0x61 build-MT7687Lite/py/emitbc.o
 .rodata.mp_emit_bc_label_assign.str1.1
                0x0000000010098d6c       0x71 build-MT7687Lite/py/emitbc.o
 .rodata.mp_emit_bc_load_const_tok.str1.1
                0x0000000010098ddd       0x19 build-MT7687Lite/py/emitbc.o
 .rodata.mp_emit_bc_make_closure.str1.1
                0x0000000010098df6       0x15 build-MT7687Lite/py/emitbc.o
 *fill*         0x0000000010098e0b        0x1 
 .rodata.mp_emit_bc_method_table_delete_id_ops
                0x0000000010098e0c        0x8 build-MT7687Lite/py/emitbc.o
                0x0000000010098e0c                mp_emit_bc_method_table_delete_id_ops
 .rodata.mp_emit_bc_method_table_load_id_ops
                0x0000000010098e14        0x8 build-MT7687Lite/py/emitbc.o
                0x0000000010098e14                mp_emit_bc_method_table_load_id_ops
 .rodata.mp_emit_bc_method_table_store_id_ops
                0x0000000010098e1c        0x8 build-MT7687Lite/py/emitbc.o
                0x0000000010098e1c                mp_emit_bc_method_table_store_id_ops
 .rodata.mp_emit_bc_raise_varargs.str1.1
                0x0000000010098e24        0xc build-MT7687Lite/py/emitbc.o
 .rodata.mp_emit_bc_start_pass.str1.1
                0x0000000010098e30       0x14 build-MT7687Lite/py/emitbc.o
 .rodata.mp_parse_num_decimal.str1.1
                0x0000000010098e44       0x1e build-MT7687Lite/py/parsenum.o
 .rodata.mp_parse_num_integer.str1.1
                0x0000000010098e62       0x3e build-MT7687Lite/py/parsenum.o
 .rodata.__func__.8478
                0x0000000010098ea0       0x1f build-MT7687Lite/py/emitglue.o
 .rodata.mp_make_function_from_raw_code.str1.1
                0x0000000010098ebf       0xc9 build-MT7687Lite/py/emitglue.o
 .rodata.__func__.8702
                0x0000000010098f88        0x9 build-MT7687Lite/py/persistentcode.o
 .rodata.load_raw_code.str1.1
                0x0000000010098f91       0x3d build-MT7687Lite/py/persistentcode.o
 .rodata.mp_raw_code_load.str1.1
                0x0000000010098fce       0x17 build-MT7687Lite/py/persistentcode.o
 .rodata.__func__.8913
                0x0000000010098fe5        0xc build-MT7687Lite/py/runtime.o
 .rodata.__func__.9030
                0x0000000010098ff1       0x1e build-MT7687Lite/py/runtime.o
 .rodata.__func__.9138
                0x000000001009900f       0x15 build-MT7687Lite/py/runtime.o
 .rodata.__func__.9164
                0x0000000010099024        0xb build-MT7687Lite/py/runtime.o
 .rodata.__func__.9186
                0x000000001009902f        0xa build-MT7687Lite/py/runtime.o
 .rodata.checked_fun_call.str1.1
                0x0000000010099039       0x18 build-MT7687Lite/py/runtime.o
 .rodata.m_malloc_fail.str1.1
                0x0000000010099051       0x57 build-MT7687Lite/py/runtime.o
 .rodata.mp_binary_op.str1.1
                0x00000000100990a8       0x4b build-MT7687Lite/py/runtime.o
 .rodata.mp_call_function_n_kw.str1.1
                0x00000000100990f3       0x14 build-MT7687Lite/py/runtime.o
 .rodata.mp_call_method_n_kw_var.str1.1
                0x0000000010099107       0x29 build-MT7687Lite/py/runtime.o
 .rodata.mp_getiter.str1.1
                0x0000000010099130       0x19 build-MT7687Lite/py/runtime.o
 .rodata.mp_import_from.str1.1
                0x0000000010099149       0x16 build-MT7687Lite/py/runtime.o
 .rodata.mp_iternext_allow_raise.str1.1
                0x000000001009915f       0x17 build-MT7687Lite/py/runtime.o
 .rodata.mp_load_global.str1.1
                0x0000000010099176       0x11 build-MT7687Lite/py/runtime.o
 .rodata.mp_load_method.str1.1
                0x0000000010099187       0x12 build-MT7687Lite/py/runtime.o
 .rodata.mp_load_method_maybe.str1.1
                0x0000000010099199       0x41 build-MT7687Lite/py/runtime.o
 .rodata.mp_make_raise_obj.str1.1
                0x00000000100991da       0x2a build-MT7687Lite/py/runtime.o
 .rodata.mp_module___main__
                0x0000000010099204        0x8 build-MT7687Lite/py/runtime.o
                0x0000000010099204                mp_module___main__
 .rodata.mp_resume.str1.1
                0x000000001009920c       0x56 build-MT7687Lite/py/runtime.o
 *fill*         0x0000000010099262        0x2 
 .rodata.mp_type_checked_fun
                0x0000000010099264       0x3c build-MT7687Lite/py/runtime.o
 .rodata.mp_unary_op.str1.1
                0x00000000100992a0       0x37 build-MT7687Lite/py/runtime.o
 .rodata.mp_unpack_sequence.str1.1
                0x00000000100992d7       0x21 build-MT7687Lite/py/runtime.o
 .rodata.__func__.8605
                0x00000000100992f8       0x11 build-MT7687Lite/py/argcheck.o
 .rodata.mp_arg_error_terse_mismatch.str1.1
                0x0000000010099309       0x1c build-MT7687Lite/py/argcheck.o
 .rodata.mp_arg_error_unimpl_kw.str1.1
                0x0000000010099325       0x42 build-MT7687Lite/py/argcheck.o
 .rodata.mp_arg_parse_all.str1.1
                0x0000000010099367       0x48 build-MT7687Lite/py/argcheck.o
 .rodata.__func__.8803
                0x00000000100993af        0xe build-MT7687Lite/py/map.o
 *fill*         0x00000000100993bd        0x1 
 .rodata.hash_allocation_sizes
                0x00000000100993be       0x44 build-MT7687Lite/py/map.o
 *fill*         0x0000000010099402        0x2 
 .rodata.mp_const_empty_map
                0x0000000010099404        0xc build-MT7687Lite/py/map.o
                0x0000000010099404                mp_const_empty_map
 .rodata.mp_map_lookup.str1.1
                0x0000000010099410       0x3e build-MT7687Lite/py/map.o
 .rodata.__func__.8564
                0x000000001009944e       0x17 build-MT7687Lite/py/obj.o
 .rodata.mp_get_buffer_raise.str1.1
                0x0000000010099465       0x25 build-MT7687Lite/py/obj.o
 .rodata.mp_get_index.str1.1
                0x000000001009948a       0x19 build-MT7687Lite/py/obj.o
                                         0x2c (size before relaxing)
 *fill*         0x00000000100994a3        0x1 
 .rodata.mp_identity_obj
                0x00000000100994a4        0x8 build-MT7687Lite/py/obj.o
                0x00000000100994a4                mp_identity_obj
 .rodata.mp_obj_get_array.str1.1
                0x00000000100994ac       0x14 build-MT7687Lite/py/obj.o
 .rodata.mp_obj_get_array_fixed_n.str1.1
                0x00000000100994c0       0x1c build-MT7687Lite/py/obj.o
 .rodata.mp_obj_get_int.str1.1
                0x00000000100994dc       0x15 build-MT7687Lite/py/obj.o
 .rodata.mp_obj_len.str1.1
                0x00000000100994f1       0x12 build-MT7687Lite/py/obj.o
 .rodata.mp_obj_print_exception.str1.1
                0x0000000010099503       0x5c build-MT7687Lite/py/obj.o
                                         0x5e (size before relaxing)
 .rodata.mp_obj_print_helper.str1.1
                0x000000001009955f        0xb build-MT7687Lite/py/obj.o
 .rodata.mp_obj_subscr.str1.1
                0x000000001009956a       0x6a build-MT7687Lite/py/obj.o
 .rodata.__func__.8585
                0x00000000100995d4        0xd build-MT7687Lite/py/objarray.o
 .rodata.__func__.8593
                0x00000000100995e1        0xd build-MT7687Lite/py/objarray.o
 .rodata.__func__.8616
                0x00000000100995ee        0xd build-MT7687Lite/py/objarray.o
 *fill*         0x00000000100995fb        0x1 
 .rodata.array_append_obj
                0x00000000100995fc        0x8 build-MT7687Lite/py/objarray.o
 .rodata.array_extend.str1.1
                0x0000000010099604       0xa4 build-MT7687Lite/py/objarray.o
 .rodata.array_extend_obj
                0x00000000100996a8        0x8 build-MT7687Lite/py/objarray.o
 .rodata.array_it_type
                0x00000000100996b0       0x3c build-MT7687Lite/py/objarray.o
 .rodata.array_locals_dict
                0x00000000100996ec       0x10 build-MT7687Lite/py/objarray.o
 .rodata.array_locals_dict_table
                0x00000000100996fc       0x10 build-MT7687Lite/py/objarray.o
 .rodata.array_print.str1.1
                0x000000001009970c       0x1e build-MT7687Lite/py/objarray.o
                                         0x22 (size before relaxing)
 .rodata.array_subscr.str1.1
                0x000000001009972a       0x7c build-MT7687Lite/py/objarray.o
 *fill*         0x00000000100997a6        0x2 
 .rodata.mp_type_array
                0x00000000100997a8       0x3c build-MT7687Lite/py/objarray.o
                0x00000000100997a8                mp_type_array
 .rodata.mp_type_bytearray
                0x00000000100997e4       0x3c build-MT7687Lite/py/objarray.o
                0x00000000100997e4                mp_type_bytearray
 .rodata.mp_type_memoryview
                0x0000000010099820       0x3c build-MT7687Lite/py/objarray.o
                0x0000000010099820                mp_type_memoryview
 .rodata.mp_obj_attrtuple_print_helper.str1.1
                0x000000001009985c        0x4 build-MT7687Lite/py/objattrtuple.o
                                          0xb (size before relaxing)
 .rodata.mp_type_attrtuple
                0x0000000010099860       0x3c build-MT7687Lite/py/objattrtuple.o
                0x0000000010099860                mp_type_attrtuple
 .rodata.bool_print.str1.1
                0x000000001009989c       0x16 build-MT7687Lite/py/objbool.o
 .rodata.mp_const_false_obj
                0x000000001009989c        0x8 build-MT7687Lite/py/objbool.o
                0x000000001009989c                mp_const_false_obj
 .rodata.mp_const_true_obj
                0x00000000100998a4        0x8 build-MT7687Lite/py/objbool.o
                0x00000000100998a4                mp_const_true_obj
 .rodata.mp_type_bool
                0x00000000100998ac       0x3c build-MT7687Lite/py/objbool.o
                0x00000000100998ac                mp_type_bool
 .rodata.mp_type_bound_meth
                0x00000000100998e8       0x3c build-MT7687Lite/py/objboundmeth.o
 .rodata.mp_type_cell
                0x0000000010099924       0x3c build-MT7687Lite/py/objcell.o
 .rodata.closure_type
                0x0000000010099960       0x3c build-MT7687Lite/py/objclosure.o
                0x0000000010099960                closure_type
 .rodata.dict_clear_obj
                0x000000001009999c        0x8 build-MT7687Lite/py/objdict.o
 .rodata.dict_copy_obj
                0x00000000100999a4        0x8 build-MT7687Lite/py/objdict.o
 .rodata.dict_fromkeys_fun_obj
                0x00000000100999ac        0xc build-MT7687Lite/py/objdict.o
 .rodata.dict_fromkeys_obj
                0x00000000100999b8        0x8 build-MT7687Lite/py/objdict.o
 .rodata.dict_get_obj
                0x00000000100999c0        0xc build-MT7687Lite/py/objdict.o
 .rodata.dict_items_obj
                0x00000000100999cc        0x8 build-MT7687Lite/py/objdict.o
 .rodata.dict_keys_obj
                0x00000000100999d4        0x8 build-MT7687Lite/py/objdict.o
 .rodata.dict_locals_dict
                0x00000000100999dc       0x10 build-MT7687Lite/py/objdict.o
 .rodata.dict_locals_dict_table
                0x00000000100999ec       0x70 build-MT7687Lite/py/objdict.o
 .rodata.dict_pop_obj
                0x0000000010099a5c        0xc build-MT7687Lite/py/objdict.o
 .rodata.dict_popitem.str1.1
                0x0000000010099a68       0x1f build-MT7687Lite/py/objdict.o
 *fill*         0x0000000010099a87        0x1 
 .rodata.dict_popitem_obj
                0x0000000010099a88        0x8 build-MT7687Lite/py/objdict.o
 .rodata.dict_print.str1.1
                0x0000000010099a90        0x6 build-MT7687Lite/py/objdict.o
                                          0xd (size before relaxing)
 *fill*         0x0000000010099a96        0x2 
 .rodata.dict_setdefault_obj
                0x0000000010099a98        0xc build-MT7687Lite/py/objdict.o
 .rodata.dict_update.str1.1
                0x0000000010099aa4       0x26 build-MT7687Lite/py/objdict.o
 *fill*         0x0000000010099aca        0x2 
 .rodata.dict_update_obj
                0x0000000010099acc        0xc build-MT7687Lite/py/objdict.o
 .rodata.dict_values_obj
                0x0000000010099ad8        0x8 build-MT7687Lite/py/objdict.o
 .rodata.dict_view_it_type
                0x0000000010099ae0       0x3c build-MT7687Lite/py/objdict.o
 .rodata.dict_view_print.str1.1
                0x0000000010099b1c        0x3 build-MT7687Lite/py/objdict.o
                                          0x9 (size before relaxing)
 *fill*         0x0000000010099b1f        0x1 
 .rodata.dict_view_type
                0x0000000010099b20       0x3c build-MT7687Lite/py/objdict.o
 .rodata.mp_dict_view_names
                0x0000000010099b5c        0xc build-MT7687Lite/py/objdict.o
 .rodata.mp_type_dict
                0x0000000010099b68       0x3c build-MT7687Lite/py/objdict.o
                0x0000000010099b68                mp_type_dict
 .rodata.mp_type_ordereddict
                0x0000000010099ba4       0x3c build-MT7687Lite/py/objdict.o
                0x0000000010099ba4                mp_type_ordereddict
 .rodata.str1.1
                0x0000000010099be0       0x21 build-MT7687Lite/py/objdict.o
 .rodata.__func__.8606
                0x0000000010099c01       0x13 build-MT7687Lite/py/objenumerate.o
 .rodata.allowed_args.8596
                0x0000000010099c14       0x10 build-MT7687Lite/py/objenumerate.o
 .rodata.enumerate_iternext.str1.1
                0x0000000010099c24       0x44 build-MT7687Lite/py/objenumerate.o
 .rodata.mp_type_enumerate
                0x0000000010099c68       0x3c build-MT7687Lite/py/objenumerate.o
                0x0000000010099c68                mp_type_enumerate
 .rodata.__func__.8586
                0x0000000010099ca4       0x1a build-MT7687Lite/py/objexcept.o
 .rodata.__func__.8608
                0x0000000010099cbe       0x1e build-MT7687Lite/py/objexcept.o
 .rodata.__func__.8631
                0x0000000010099cdc       0x21 build-MT7687Lite/py/objexcept.o
 .rodata.__func__.8639
                0x0000000010099cfd       0x1f build-MT7687Lite/py/objexcept.o
 .rodata.__func__.8649
                0x0000000010099d1c       0x1f build-MT7687Lite/py/objexcept.o
 *fill*         0x0000000010099d3b        0x1 
 .rodata.mp_const_GeneratorExit_obj
                0x0000000010099d3c       0x10 build-MT7687Lite/py/objexcept.o
                0x0000000010099d3c                mp_const_GeneratorExit_obj
 .rodata.mp_obj_exception_clear_traceback.str1.1
                0x0000000010099d4c       0x26 build-MT7687Lite/py/objexcept.o
 .rodata.mp_obj_exception_print.str1.1
                0x0000000010099d72        0xe build-MT7687Lite/py/objexcept.o
                                         0x12 (size before relaxing)
 .rodata.mp_obj_new_exception_args.str1.1
                0x0000000010099d80       0x45 build-MT7687Lite/py/objexcept.o
 .rodata.mp_obj_new_exception_msg_varg.str1.1
                0x0000000010099dc5        0xc build-MT7687Lite/py/objexcept.o
 *fill*         0x0000000010099dd1        0x3 
 .rodata.mp_type_ArithmeticError
                0x0000000010099dd4       0x3c build-MT7687Lite/py/objexcept.o
                0x0000000010099dd4                mp_type_ArithmeticError
 .rodata.mp_type_AssertionError
                0x0000000010099e10       0x3c build-MT7687Lite/py/objexcept.o
                0x0000000010099e10                mp_type_AssertionError
 .rodata.mp_type_AttributeError
                0x0000000010099e4c       0x3c build-MT7687Lite/py/objexcept.o
                0x0000000010099e4c                mp_type_AttributeError
 .rodata.mp_type_BaseException
                0x0000000010099e88       0x3c build-MT7687Lite/py/objexcept.o
                0x0000000010099e88                mp_type_BaseException
 .rodata.mp_type_EOFError
                0x0000000010099ec4       0x3c build-MT7687Lite/py/objexcept.o
                0x0000000010099ec4                mp_type_EOFError
 .rodata.mp_type_Exception
                0x0000000010099f00       0x3c build-MT7687Lite/py/objexcept.o
                0x0000000010099f00                mp_type_Exception
 .rodata.mp_type_GeneratorExit
                0x0000000010099f3c       0x3c build-MT7687Lite/py/objexcept.o
                0x0000000010099f3c                mp_type_GeneratorExit
 .rodata.mp_type_ImportError
                0x0000000010099f78       0x3c build-MT7687Lite/py/objexcept.o
                0x0000000010099f78                mp_type_ImportError
 .rodata.mp_type_IndentationError
                0x0000000010099fb4       0x3c build-MT7687Lite/py/objexcept.o
                0x0000000010099fb4                mp_type_IndentationError
 .rodata.mp_type_IndexError
                0x0000000010099ff0       0x3c build-MT7687Lite/py/objexcept.o
                0x0000000010099ff0                mp_type_IndexError
 .rodata.mp_type_KeyError
                0x000000001009a02c       0x3c build-MT7687Lite/py/objexcept.o
                0x000000001009a02c                mp_type_KeyError
 .rodata.mp_type_KeyboardInterrupt
                0x000000001009a068       0x3c build-MT7687Lite/py/objexcept.o
                0x000000001009a068                mp_type_KeyboardInterrupt
 .rodata.mp_type_LookupError
                0x000000001009a0a4       0x3c build-MT7687Lite/py/objexcept.o
                0x000000001009a0a4                mp_type_LookupError
 .rodata.mp_type_MemoryError
                0x000000001009a0e0       0x3c build-MT7687Lite/py/objexcept.o
                0x000000001009a0e0                mp_type_MemoryError
 .rodata.mp_type_NameError
                0x000000001009a11c       0x3c build-MT7687Lite/py/objexcept.o
                0x000000001009a11c                mp_type_NameError
 .rodata.mp_type_NotImplementedError
                0x000000001009a158       0x3c build-MT7687Lite/py/objexcept.o
                0x000000001009a158                mp_type_NotImplementedError
 .rodata.mp_type_OSError
                0x000000001009a194       0x3c build-MT7687Lite/py/objexcept.o
                0x000000001009a194                mp_type_OSError
 .rodata.mp_type_OverflowError
                0x000000001009a1d0       0x3c build-MT7687Lite/py/objexcept.o
                0x000000001009a1d0                mp_type_OverflowError
 .rodata.mp_type_RuntimeError
                0x000000001009a20c       0x3c build-MT7687Lite/py/objexcept.o
                0x000000001009a20c                mp_type_RuntimeError
 .rodata.mp_type_StopIteration
                0x000000001009a248       0x3c build-MT7687Lite/py/objexcept.o
                0x000000001009a248                mp_type_StopIteration
 .rodata.mp_type_SyntaxError
                0x000000001009a284       0x3c build-MT7687Lite/py/objexcept.o
                0x000000001009a284                mp_type_SyntaxError
 .rodata.mp_type_SystemExit
                0x000000001009a2c0       0x3c build-MT7687Lite/py/objexcept.o
                0x000000001009a2c0                mp_type_SystemExit
 .rodata.mp_type_TypeError
                0x000000001009a2fc       0x3c build-MT7687Lite/py/objexcept.o
                0x000000001009a2fc                mp_type_TypeError
 .rodata.mp_type_UnicodeError
                0x000000001009a338       0x3c build-MT7687Lite/py/objexcept.o
                0x000000001009a338                mp_type_UnicodeError
 .rodata.mp_type_ValueError
                0x000000001009a374       0x3c build-MT7687Lite/py/objexcept.o
                0x000000001009a374                mp_type_ValueError
 .rodata.mp_type_ZeroDivisionError
                0x000000001009a3b0       0x3c build-MT7687Lite/py/objexcept.o
                0x000000001009a3b0                mp_type_ZeroDivisionError
 .rodata.mp_type_filter
                0x000000001009a3ec       0x3c build-MT7687Lite/py/objfilter.o
                0x000000001009a3ec                mp_type_filter
 .rodata.__func__.8426
                0x000000001009a428       0x13 build-MT7687Lite/py/objfun.o
 .rodata.__func__.8435
                0x000000001009a43b       0x13 build-MT7687Lite/py/objfun.o
 .rodata.__func__.8444
                0x000000001009a44e       0x13 build-MT7687Lite/py/objfun.o
 .rodata.__func__.8453
                0x000000001009a461       0x13 build-MT7687Lite/py/objfun.o
 .rodata.__func__.8462
                0x000000001009a474       0x15 build-MT7687Lite/py/objfun.o
 .rodata.__func__.8493
                0x000000001009a489        0xc build-MT7687Lite/py/objfun.o
 .rodata.__func__.8504
                0x000000001009a495       0x12 build-MT7687Lite/py/objfun.o
 .rodata.fun_bc_call.str1.1
                0x000000001009a4a7       0x29 build-MT7687Lite/py/objfun.o
 .rodata.fun_bc_print.str1.1
                0x000000001009a4d0       0x16 build-MT7687Lite/py/objfun.o
 .rodata.fun_builtin_0_call.str1.1
                0x000000001009a4e6       0x42 build-MT7687Lite/py/objfun.o
 .rodata.fun_builtin_1_call.str1.1
                0x000000001009a528       0x30 build-MT7687Lite/py/objfun.o
 .rodata.fun_builtin_2_call.str1.1
                0x000000001009a558       0x30 build-MT7687Lite/py/objfun.o
 .rodata.fun_builtin_3_call.str1.1
                0x000000001009a588       0x30 build-MT7687Lite/py/objfun.o
 .rodata.fun_builtin_var_call.str1.1
                0x000000001009a5b8       0x32 build-MT7687Lite/py/objfun.o
 .rodata.mp_obj_new_fun_bc.str1.1
                0x000000001009a5ea       0x2c build-MT7687Lite/py/objfun.o
 *fill*         0x000000001009a616        0x2 
 .rodata.mp_type_fun_bc
                0x000000001009a618       0x3c build-MT7687Lite/py/objfun.o
                0x000000001009a618                mp_type_fun_bc
 .rodata.mp_type_fun_builtin_0
                0x000000001009a654       0x3c build-MT7687Lite/py/objfun.o
                0x000000001009a654                mp_type_fun_builtin_0
 .rodata.mp_type_fun_builtin_1
                0x000000001009a690       0x3c build-MT7687Lite/py/objfun.o
                0x000000001009a690                mp_type_fun_builtin_1
 .rodata.mp_type_fun_builtin_2
                0x000000001009a6cc       0x3c build-MT7687Lite/py/objfun.o
                0x000000001009a6cc                mp_type_fun_builtin_2
 .rodata.mp_type_fun_builtin_3
                0x000000001009a708       0x3c build-MT7687Lite/py/objfun.o
                0x000000001009a708                mp_type_fun_builtin_3
 .rodata.mp_type_fun_builtin_var
                0x000000001009a744       0x3c build-MT7687Lite/py/objfun.o
                0x000000001009a744                mp_type_fun_builtin_var
 .rodata.gen_instance_close.str1.1
                0x000000001009a780       0x20 build-MT7687Lite/py/objgenerator.o
 .rodata.gen_instance_close_obj
                0x000000001009a7a0        0x8 build-MT7687Lite/py/objgenerator.o
 .rodata.gen_instance_locals_dict
                0x000000001009a7a8       0x10 build-MT7687Lite/py/objgenerator.o
 .rodata.gen_instance_locals_dict_table
                0x000000001009a7b8       0x20 build-MT7687Lite/py/objgenerator.o
 .rodata.gen_instance_pend_throw.str1.1
                0x000000001009a7d8       0x2b build-MT7687Lite/py/objgenerator.o
 *fill*         0x000000001009a803        0x1 
 .rodata.gen_instance_pend_throw_obj
                0x000000001009a804        0x8 build-MT7687Lite/py/objgenerator.o
 .rodata.gen_instance_print.str1.1
                0x000000001009a80c       0x1e build-MT7687Lite/py/objgenerator.o
 *fill*         0x000000001009a82a        0x2 
 .rodata.gen_instance_send_obj
                0x000000001009a82c        0x8 build-MT7687Lite/py/objgenerator.o
 .rodata.gen_instance_throw_obj
                0x000000001009a834        0xc build-MT7687Lite/py/objgenerator.o
 .rodata.mp_obj_gen_resume.str1.1
                0x000000001009a840       0x52 build-MT7687Lite/py/objgenerator.o
 *fill*         0x000000001009a892        0x2 
 .rodata.mp_type_gen_instance
                0x000000001009a894       0x3c build-MT7687Lite/py/objgenerator.o
                0x000000001009a894                mp_type_gen_instance
 .rodata.mp_type_gen_wrap
                0x000000001009a8d0       0x3c build-MT7687Lite/py/objgenerator.o
                0x000000001009a8d0                mp_type_gen_wrap
 .rodata.it_type
                0x000000001009a90c       0x3c build-MT7687Lite/py/objgetitemiter.o
 .rodata.__func__.9273
                0x000000001009a948       0x13 build-MT7687Lite/py/objint.o
 .rodata.__func__.9288
                0x000000001009a95b       0x15 build-MT7687Lite/py/objint.o
 .rodata.int_from_bytes_fun_obj
                0x000000001009a970        0xc build-MT7687Lite/py/objint.o
 .rodata.int_from_bytes_obj
                0x000000001009a97c        0x8 build-MT7687Lite/py/objint.o
 .rodata.int_locals_dict
                0x000000001009a984       0x10 build-MT7687Lite/py/objint.o
 .rodata.int_locals_dict_table
                0x000000001009a994       0x10 build-MT7687Lite/py/objint.o
 .rodata.int_to_bytes_obj
                0x000000001009a9a4        0xc build-MT7687Lite/py/objint.o
 .rodata.log_base2_floor
                0x000000001009a9b0       0x10 build-MT7687Lite/py/objint.o
 .rodata.mp_int_format_size.str1.1
                0x000000001009a9c0       0x2a build-MT7687Lite/py/objint.o
 .rodata.mp_obj_int_formatted.str1.1
                0x000000001009a9ea       0x26 build-MT7687Lite/py/objint.o
 .rodata.mp_type_int
                0x000000001009aa10       0x3c build-MT7687Lite/py/objint.o
                0x000000001009aa10                mp_type_int
 .rodata.__func__.8579
                0x000000001009aa4c       0x1a build-MT7687Lite/py/objint_mpz.o
 .rodata.__func__.8595
                0x000000001009aa66       0x19 build-MT7687Lite/py/objint_mpz.o
 .rodata.__func__.8627
                0x000000001009aa7f       0x15 build-MT7687Lite/py/objint_mpz.o
 .rodata.maxsize_dig
                0x000000001009aa94        0x4 build-MT7687Lite/py/objint_mpz.o
 .rodata.mp_maxsize_obj
                0x000000001009aa98       0x10 build-MT7687Lite/py/objint_mpz.o
                0x000000001009aa98                mp_maxsize_obj
 .rodata.mp_obj_int_binary_op.str1.1
                0x000000001009aaa8       0x3f build-MT7687Lite/py/objint_mpz.o
                                         0x8a (size before relaxing)
 .rodata.mp_obj_int_formatted_impl.str1.1
                0x000000001009aae7       0x16 build-MT7687Lite/py/objint_mpz.o
                                         0x3c (size before relaxing)
 .rodata.mp_obj_int_get_checked.str1.1
                0x000000001009aafd       0x2d build-MT7687Lite/py/objint_mpz.o
 .rodata.__func__.8441
                0x000000001009ab2a        0xc build-MT7687Lite/py/objlist.o
 *fill*         0x000000001009ab36        0x2 
 .rodata.allowed_args.8499
                0x000000001009ab38       0x10 build-MT7687Lite/py/objlist.o
 .rodata.list_append_obj
                0x000000001009ab48        0x8 build-MT7687Lite/py/objlist.o
 .rodata.list_clear_obj
                0x000000001009ab50        0x8 build-MT7687Lite/py/objlist.o
 .rodata.list_copy_obj
                0x000000001009ab58        0x8 build-MT7687Lite/py/objlist.o
 .rodata.list_count_obj
                0x000000001009ab60        0x8 build-MT7687Lite/py/objlist.o
 .rodata.list_extend_obj
                0x000000001009ab68        0x8 build-MT7687Lite/py/objlist.o
 .rodata.list_index_obj
                0x000000001009ab70        0xc build-MT7687Lite/py/objlist.o
 .rodata.list_insert_obj
                0x000000001009ab7c        0x8 build-MT7687Lite/py/objlist.o
 .rodata.list_locals_dict
                0x000000001009ab84       0x10 build-MT7687Lite/py/objlist.o
 .rodata.list_locals_dict_table
                0x000000001009ab94       0x58 build-MT7687Lite/py/objlist.o
 .rodata.list_pop.str1.1
                0x000000001009abec       0x14 build-MT7687Lite/py/objlist.o
 .rodata.list_pop_obj
                0x000000001009ac00        0xc build-MT7687Lite/py/objlist.o
 .rodata.list_print.str1.1
                0x000000001009ac0c       0x14 build-MT7687Lite/py/objlist.o
                                          0x7 (size before relaxing)
 .rodata.list_remove_obj
                0x000000001009ac0c        0x8 build-MT7687Lite/py/objlist.o
 .rodata.list_reverse_obj
                0x000000001009ac14        0x8 build-MT7687Lite/py/objlist.o
 .rodata.list_sort_obj
                0x000000001009ac1c        0xc build-MT7687Lite/py/objlist.o
 .rodata.list_subscr.str1.1
                0x000000001009ac28       0x20 build-MT7687Lite/py/objlist.o
 .rodata.mp_type_list
                0x000000001009ac48       0x3c build-MT7687Lite/py/objlist.o
                0x000000001009ac48                mp_type_list
 .rodata.mp_type_map
                0x000000001009ac84       0x3c build-MT7687Lite/py/objmap.o
                0x000000001009ac84                mp_type_map
 .rodata.module_print.str1.1
                0x000000001009acc0       0x26 build-MT7687Lite/py/objmodule.o
                                         0x27 (size before relaxing)
 *fill*         0x000000001009ace6        0x2 
 .rodata.mp_builtin_module_map
                0x000000001009ace8        0xc build-MT7687Lite/py/objmodule.o
                0x000000001009ace8                mp_builtin_module_map
 .rodata.mp_builtin_module_table
                0x000000001009acf4       0x98 build-MT7687Lite/py/objmodule.o
 .rodata.mp_builtin_module_weak_links_map
                0x000000001009ad8c        0xc build-MT7687Lite/py/objmodule.o
                0x000000001009ad8c                mp_builtin_module_weak_links_map
 .rodata.mp_builtin_module_weak_links_table
                0x000000001009ad98       0x48 build-MT7687Lite/py/objmodule.o
 .rodata.mp_type_module
                0x000000001009ade0       0x3c build-MT7687Lite/py/objmodule.o
                0x000000001009ade0                mp_type_module
 .rodata.mp_type_object
                0x000000001009ae1c       0x3c build-MT7687Lite/py/objobject.o
                0x000000001009ae1c                mp_type_object
 .rodata.object___init___obj
                0x000000001009ae58        0x8 build-MT7687Lite/py/objobject.o
 .rodata.object___new__.str1.1
                0x000000001009ae60       0x20 build-MT7687Lite/py/objobject.o
 .rodata.object___new___fun_obj
                0x000000001009ae80        0x8 build-MT7687Lite/py/objobject.o
 .rodata.object___new___obj
                0x000000001009ae88        0x8 build-MT7687Lite/py/objobject.o
 .rodata.object_locals_dict
                0x000000001009ae90       0x10 build-MT7687Lite/py/objobject.o
 .rodata.object_locals_dict_table
                0x000000001009aea0       0x10 build-MT7687Lite/py/objobject.o
 .rodata.mp_type_polymorph_iter
                0x000000001009aeb0       0x3c build-MT7687Lite/py/objpolyiter.o
                0x000000001009aeb0                mp_type_polymorph_iter
 .rodata.allowed_args.8598
                0x000000001009aeec       0x20 build-MT7687Lite/py/objproperty.o
 .rodata.mp_type_property
                0x000000001009af0c       0x3c build-MT7687Lite/py/objproperty.o
                0x000000001009af0c                mp_type_property
 .rodata.property_deleter_obj
                0x000000001009af48        0x8 build-MT7687Lite/py/objproperty.o
 .rodata.property_getter_obj
                0x000000001009af50        0x8 build-MT7687Lite/py/objproperty.o
 .rodata.property_locals_dict
                0x000000001009af58       0x10 build-MT7687Lite/py/objproperty.o
 .rodata.property_locals_dict_table
                0x000000001009af68       0x18 build-MT7687Lite/py/objproperty.o
 .rodata.property_setter_obj
                0x000000001009af80        0x8 build-MT7687Lite/py/objproperty.o
 .rodata.mp_const_none_obj
                0x000000001009af88        0x4 build-MT7687Lite/py/objnone.o
                0x000000001009af88                mp_const_none_obj
 .rodata.mp_type_NoneType
                0x000000001009af8c       0x3c build-MT7687Lite/py/objnone.o
                0x000000001009af8c                mp_type_NoneType
 .rodata.none_print.str1.1
                0x000000001009afc8        0x5 build-MT7687Lite/py/objnone.o
                                          0xa (size before relaxing)
 *fill*         0x000000001009afcd        0x3 
 .rodata.mp_namedtuple_obj
                0x000000001009afd0        0x8 build-MT7687Lite/py/objnamedtuple.o
                0x000000001009afd0                mp_namedtuple_obj
 .rodata.namedtuple_attr.str1.1
                0x000000001009afd8       0x14 build-MT7687Lite/py/objnamedtuple.o
 .rodata.namedtuple_print.str1.1
                0x000000001009afec       0x14 build-MT7687Lite/py/objnamedtuple.o
                                          0x3 (size before relaxing)
 .rodata.mp_type_range
                0x000000001009afec       0x3c build-MT7687Lite/py/objrange.o
                0x000000001009afec                mp_type_range
 .rodata.range_it_type
                0x000000001009b028       0x3c build-MT7687Lite/py/objrange.o
 .rodata.range_make_new.str1.1
                0x000000001009b064        0xa build-MT7687Lite/py/objrange.o
 .rodata.range_print.str1.1
                0x000000001009b06e       0x13 build-MT7687Lite/py/objrange.o
                                         0x15 (size before relaxing)
 *fill*         0x000000001009b081        0x3 
 .rodata.mp_type_reversed
                0x000000001009b084       0x3c build-MT7687Lite/py/objreversed.o
                0x000000001009b084                mp_type_reversed
 .rodata.frozenset_locals_dict
                0x000000001009b0c0       0x10 build-MT7687Lite/py/objset.o
 .rodata.frozenset_locals_dict_table
                0x000000001009b0d0       0x48 build-MT7687Lite/py/objset.o
 .rodata.mp_type_frozenset
                0x000000001009b118       0x3c build-MT7687Lite/py/objset.o
                0x000000001009b118                mp_type_frozenset
 .rodata.mp_type_set
                0x000000001009b154       0x3c build-MT7687Lite/py/objset.o
                0x000000001009b154                mp_type_set
 .rodata.set_add_obj
                0x000000001009b190        0x8 build-MT7687Lite/py/objset.o
 .rodata.set_clear_obj
                0x000000001009b198        0x8 build-MT7687Lite/py/objset.o
 .rodata.set_copy_obj
                0x000000001009b1a0        0x8 build-MT7687Lite/py/objset.o
 .rodata.set_diff_obj
                0x000000001009b1a8        0xc build-MT7687Lite/py/objset.o
 .rodata.set_diff_update_obj
                0x000000001009b1b4        0xc build-MT7687Lite/py/objset.o
 .rodata.set_discard_obj
                0x000000001009b1c0        0x8 build-MT7687Lite/py/objset.o
 .rodata.set_intersect_obj
                0x000000001009b1c8        0x8 build-MT7687Lite/py/objset.o
 .rodata.set_intersect_update_obj
                0x000000001009b1d0        0x8 build-MT7687Lite/py/objset.o
 .rodata.set_isdisjoint_obj
                0x000000001009b1d8        0x8 build-MT7687Lite/py/objset.o
 .rodata.set_issubset_obj
                0x000000001009b1e0        0x8 build-MT7687Lite/py/objset.o
 .rodata.set_issuperset_obj
                0x000000001009b1e8        0x8 build-MT7687Lite/py/objset.o
 .rodata.set_locals_dict
                0x000000001009b1f0       0x10 build-MT7687Lite/py/objset.o
 .rodata.set_locals_dict_table
                0x000000001009b200       0x90 build-MT7687Lite/py/objset.o
 .rodata.set_pop.str1.1
                0x000000001009b290       0x16 build-MT7687Lite/py/objset.o
 *fill*         0x000000001009b2a6        0x2 
 .rodata.set_pop_obj
                0x000000001009b2a8        0x8 build-MT7687Lite/py/objset.o
 .rodata.set_print.str1.1
                0x000000001009b2b0       0x18 build-MT7687Lite/py/objset.o
                                         0x21 (size before relaxing)
 .rodata.set_remove_obj
                0x000000001009b2c8        0x8 build-MT7687Lite/py/objset.o
 .rodata.set_symmetric_difference_obj
                0x000000001009b2d0        0x8 build-MT7687Lite/py/objset.o
 .rodata.set_symmetric_difference_update_obj
                0x000000001009b2d8        0x8 build-MT7687Lite/py/objset.o
 .rodata.set_union_obj
                0x000000001009b2e0        0x8 build-MT7687Lite/py/objset.o
 .rodata.set_update_obj
                0x000000001009b2e8        0xc build-MT7687Lite/py/objset.o
 .rodata.mp_const_ellipsis_obj
                0x000000001009b2f4        0x8 build-MT7687Lite/py/objsingleton.o
                0x000000001009b2f4                mp_const_ellipsis_obj
 .rodata.mp_type_singleton
                0x000000001009b2fc       0x3c build-MT7687Lite/py/objsingleton.o
                0x000000001009b2fc                mp_type_singleton
 .rodata.singleton_print.str1.1
                0x000000001009b338        0x3 build-MT7687Lite/py/objsingleton.o
 .rodata.__func__.8186
                0x000000001009b338       0x11 build-MT7687Lite/py/objslice.o
 .rodata.mp_obj_slice_get.str1.1
                0x000000001009b349       0x3c build-MT7687Lite/py/objslice.o
 *fill*         0x000000001009b385        0x3 
 .rodata.mp_type_slice
                0x000000001009b388       0x3c build-MT7687Lite/py/objslice.o
                0x000000001009b388                mp_type_slice
 .rodata.slice_print.str1.1
                0x000000001009b3c4        0x7 build-MT7687Lite/py/objslice.o
                                          0xc (size before relaxing)
 .rodata.__func__.8765
                0x000000001009b3cb        0xe build-MT7687Lite/py/objstr.o
 .rodata.__func__.8838
                0x000000001009b3d9       0x19 build-MT7687Lite/py/objstr.o
 .rodata.__func__.8966
                0x000000001009b3f2        0xc build-MT7687Lite/py/objstr.o
 *fill*         0x000000001009b3fe        0x2 
 .rodata.allowed_args.8645
                0x000000001009b400        0x8 build-MT7687Lite/py/objstr.o
 .rodata.bad_implicit_conversion.isra.2.str1.1
                0x000000001009b408       0x20 build-MT7687Lite/py/objstr.o
 .rodata.bytes_decode_obj
                0x000000001009b428        0xc build-MT7687Lite/py/objstr.o
                0x000000001009b428                bytes_decode_obj
 .rodata.bytes_make_new.part.5.str1.1
                0x000000001009b434       0x33 build-MT7687Lite/py/objstr.o
 .rodata.bytes_subscr.str1.1
                0x000000001009b467       0x31 build-MT7687Lite/py/objstr.o
 *fill*         0x000000001009b467        0x1 
 .rodata.mp_const_empty_bytes_obj
                0x000000001009b468       0x10 build-MT7687Lite/py/objstr.o
                0x000000001009b468                mp_const_empty_bytes_obj
 .rodata.mp_obj_str_binary_op.str1.1
                0x000000001009b478       0x9d build-MT7687Lite/py/objstr.o
 .rodata.mp_obj_str_format_helper.str1.1
                0x000000001009b515       0x5d build-MT7687Lite/py/objstr.o
 .rodata.mp_obj_str_split.str1.1
                0x000000001009b572       0x10 build-MT7687Lite/py/objstr.o
 .rodata.mp_str_print_json.str1.1
                0x000000001009b582        0x7 build-MT7687Lite/py/objstr.o
                                          0x9 (size before relaxing)
 .rodata.mp_str_print_quoted.str1.1
                0x000000001009b589       0x17 build-MT7687Lite/py/objstr.o
                                         0x1a (size before relaxing)
 .rodata.mp_type_bytes
                0x000000001009b5a0       0x3c build-MT7687Lite/py/objstr.o
                0x000000001009b5a0                mp_type_bytes
 .rodata.str1.1
                0x000000001009b5dc        0x1 build-MT7687Lite/py/objstr.o
 .rodata.str8_locals_dict
                0x000000001009b5dc       0x10 build-MT7687Lite/py/objstr.o
 .rodata.str8_locals_dict_table
                0x000000001009b5ec       0xc0 build-MT7687Lite/py/objstr.o
 .rodata.str_count_obj
                0x000000001009b6ac        0xc build-MT7687Lite/py/objstr.o
                0x000000001009b6ac                str_count_obj
 .rodata.str_encode_obj
                0x000000001009b6b8        0xc build-MT7687Lite/py/objstr.o
                0x000000001009b6b8                str_encode_obj
 .rodata.str_endswith.str1.1
                0x000000001009b6c4       0x12 build-MT7687Lite/py/objstr.o
 *fill*         0x000000001009b6d6        0x2 
 .rodata.str_endswith_obj
                0x000000001009b6d8        0xc build-MT7687Lite/py/objstr.o
                0x000000001009b6d8                str_endswith_obj
 .rodata.str_find_obj
                0x000000001009b6e4        0xc build-MT7687Lite/py/objstr.o
                0x000000001009b6e4                str_find_obj
 .rodata.str_finder.str1.1
                0x000000001009b6f0       0x14 build-MT7687Lite/py/objstr.o
 .rodata.str_format_obj
                0x000000001009b704        0xc build-MT7687Lite/py/objstr.o
                0x000000001009b704                str_format_obj
 .rodata.str_index_obj
                0x000000001009b710        0xc build-MT7687Lite/py/objstr.o
                0x000000001009b710                str_index_obj
 .rodata.str_isalpha_obj
                0x000000001009b71c        0x8 build-MT7687Lite/py/objstr.o
                0x000000001009b71c                str_isalpha_obj
 .rodata.str_isdigit_obj
                0x000000001009b724        0x8 build-MT7687Lite/py/objstr.o
                0x000000001009b724                str_isdigit_obj
 .rodata.str_islower_obj
                0x000000001009b72c        0x8 build-MT7687Lite/py/objstr.o
                0x000000001009b72c                str_islower_obj
 .rodata.str_isspace_obj
                0x000000001009b734        0x8 build-MT7687Lite/py/objstr.o
                0x000000001009b734                str_isspace_obj
 .rodata.str_isupper_obj
                0x000000001009b73c        0x8 build-MT7687Lite/py/objstr.o
                0x000000001009b73c                str_isupper_obj
 .rodata.str_join.str1.1
                0x000000001009b744       0x45 build-MT7687Lite/py/objstr.o
 *fill*         0x000000001009b789        0x3 
 .rodata.str_join_obj
                0x000000001009b78c        0x8 build-MT7687Lite/py/objstr.o
                0x000000001009b78c                str_join_obj
 .rodata.str_lower_obj
                0x000000001009b794        0x8 build-MT7687Lite/py/objstr.o
                0x000000001009b794                str_lower_obj
 .rodata.str_lstrip_obj
                0x000000001009b79c        0xc build-MT7687Lite/py/objstr.o
                0x000000001009b79c                str_lstrip_obj
 .rodata.str_print.str1.1
                0x000000001009b7a8        0x5 build-MT7687Lite/py/objstr.o
                                          0x7 (size before relaxing)
 .rodata.str_replace.str1.1
                0x000000001009b7ad       0x1f build-MT7687Lite/py/objstr.o
 .rodata.str_replace_obj
                0x000000001009b7cc        0xc build-MT7687Lite/py/objstr.o
                0x000000001009b7cc                str_replace_obj
 .rodata.str_rfind_obj
                0x000000001009b7d8        0xc build-MT7687Lite/py/objstr.o
                0x000000001009b7d8                str_rfind_obj
 .rodata.str_rindex_obj
                0x000000001009b7e4        0xc build-MT7687Lite/py/objstr.o
                0x000000001009b7e4                str_rindex_obj
 .rodata.str_rsplit.str1.1
                0x000000001009b7f0        0xf build-MT7687Lite/py/objstr.o
 *fill*         0x000000001009b7ff        0x1 
 .rodata.str_rsplit_obj
                0x000000001009b800        0xc build-MT7687Lite/py/objstr.o
                0x000000001009b800                str_rsplit_obj
 .rodata.str_rstrip_obj
                0x000000001009b80c        0xc build-MT7687Lite/py/objstr.o
                0x000000001009b80c                str_rstrip_obj
 .rodata.str_split_obj
                0x000000001009b818        0xc build-MT7687Lite/py/objstr.o
                0x000000001009b818                str_split_obj
 .rodata.str_splitlines_obj
                0x000000001009b824        0xc build-MT7687Lite/py/objstr.o
                0x000000001009b824                str_splitlines_obj
 .rodata.str_startswith_obj
                0x000000001009b830        0xc build-MT7687Lite/py/objstr.o
                0x000000001009b830                str_startswith_obj
 .rodata.str_strip_obj
                0x000000001009b83c        0xc build-MT7687Lite/py/objstr.o
                0x000000001009b83c                str_strip_obj
 .rodata.str_uni_strip.str1.1
                0x000000001009b848       0x43 build-MT7687Lite/py/objstr.o
 *fill*         0x000000001009b88b        0x1 
 .rodata.str_upper_obj
                0x000000001009b88c        0x8 build-MT7687Lite/py/objstr.o
                0x000000001009b88c                str_upper_obj
 .rodata.terse_str_format_value_error.str1.1
                0x000000001009b894       0x12 build-MT7687Lite/py/objstr.o
 .rodata.whitespace.8751
                0x000000001009b8a6        0x7 build-MT7687Lite/py/objstr.o
 .rodata.__func__.8496
                0x000000001009b8ad        0xb build-MT7687Lite/py/objstrunicode.o
 .rodata.mp_type_str
                0x000000001009b8b8       0x3c build-MT7687Lite/py/objstrunicode.o
                0x000000001009b8b8                mp_type_str
 .rodata.str_index_to_ptr.str1.1
                0x000000001009b8f4       0x42 build-MT7687Lite/py/objstrunicode.o
 .rodata.str_subscr.str1.1
                0x000000001009b936       0x2e build-MT7687Lite/py/objstrunicode.o
                                         0x5f (size before relaxing)
 .rodata.struni_locals_dict
                0x000000001009b964       0x10 build-MT7687Lite/py/objstrunicode.o
 .rodata.struni_locals_dict_table
                0x000000001009b974       0xc0 build-MT7687Lite/py/objstrunicode.o
 .rodata.uni_print.str1.1
                0x000000001009ba34        0x7 build-MT7687Lite/py/objstrunicode.o
                                         0x2d (size before relaxing)
 *fill*         0x000000001009ba3b        0x1 
 .rodata.bytesio_stream_p
                0x000000001009ba3c       0x10 build-MT7687Lite/py/objstringio.o
 .rodata.mp_type_bytesio
                0x000000001009ba4c       0x3c build-MT7687Lite/py/objstringio.o
                0x000000001009ba4c                mp_type_bytesio
 .rodata.mp_type_stringio
                0x000000001009ba88       0x3c build-MT7687Lite/py/objstringio.o
                0x000000001009ba88                mp_type_stringio
 .rodata.stringio___exit___obj
                0x000000001009bac4        0xc build-MT7687Lite/py/objstringio.o
 .rodata.stringio_getvalue_obj
                0x000000001009bad0        0x8 build-MT7687Lite/py/objstringio.o
 .rodata.stringio_locals_dict
                0x000000001009bad8       0x10 build-MT7687Lite/py/objstringio.o
 .rodata.stringio_locals_dict_table
                0x000000001009bae8       0x50 build-MT7687Lite/py/objstringio.o
 .rodata.stringio_print.str1.1
                0x000000001009bb38       0x25 build-MT7687Lite/py/objstringio.o
 *fill*         0x000000001009bb5d        0x3 
 .rodata.stringio_stream_p
                0x000000001009bb60       0x10 build-MT7687Lite/py/objstringio.o
 .rodata.stringio_write.str1.1
                0x000000001009bb70       0x1d build-MT7687Lite/py/objstringio.o
 .rodata.__func__.8466
                0x000000001009bb8d       0x11 build-MT7687Lite/py/objtuple.o
 .rodata.__func__.8471
                0x000000001009bb9e       0x11 build-MT7687Lite/py/objtuple.o
 *fill*         0x000000001009bbaf        0x1 
 .rodata.mp_const_empty_tuple_obj
                0x000000001009bbb0        0x8 build-MT7687Lite/py/objtuple.o
                0x000000001009bbb0                mp_const_empty_tuple_obj
 .rodata.mp_obj_tuple_get.str1.1
                0x000000001009bbb8       0x3c build-MT7687Lite/py/objtuple.o
 .rodata.mp_obj_tuple_print.str1.1
                0x000000001009bbf4        0x2 build-MT7687Lite/py/objtuple.o
                                          0xd (size before relaxing)
 .rodata.mp_obj_tuple_subscr.str1.1
                0x000000001009bbf6       0x31 build-MT7687Lite/py/objtuple.o
 *fill*         0x000000001009bbf6        0x2 
 .rodata.mp_type_tuple
                0x000000001009bbf8       0x3c build-MT7687Lite/py/objtuple.o
                0x000000001009bbf8                mp_type_tuple
 .rodata.tuple_count_obj
                0x000000001009bc34        0x8 build-MT7687Lite/py/objtuple.o
 .rodata.tuple_index_obj
                0x000000001009bc3c        0xc build-MT7687Lite/py/objtuple.o
 .rodata.tuple_locals_dict
                0x000000001009bc48       0x10 build-MT7687Lite/py/objtuple.o
 .rodata.tuple_locals_dict_table
                0x000000001009bc58       0x10 build-MT7687Lite/py/objtuple.o
 .rodata.__func__.8390
                0x000000001009bc68       0x1c build-MT7687Lite/py/objtype.o
 .rodata.__func__.8408
                0x000000001009bc84       0x14 build-MT7687Lite/py/objtype.o
 .rodata.__func__.8420
                0x000000001009bc98       0x14 build-MT7687Lite/py/objtype.o
 .rodata.__func__.8451
                0x000000001009bcac       0x19 build-MT7687Lite/py/objtype.o
 .rodata.__func__.8488
                0x000000001009bcc5       0x1a build-MT7687Lite/py/objtype.o
 .rodata.__func__.8597
                0x000000001009bcdf        0xa build-MT7687Lite/py/objtype.o
 .rodata.__func__.8651
                0x000000001009bce9        0xb build-MT7687Lite/py/objtype.o
 .rodata.__func__.8713
                0x000000001009bcf4       0x1d build-MT7687Lite/py/objtype.o
 .rodata.instance_print.str1.1
                0x000000001009bd11       0x12 build-MT7687Lite/py/objtype.o
 .rodata.mp_binary_op_method_name
                0x000000001009bd23       0x23 build-MT7687Lite/py/objtype.o
                0x000000001009bd23                mp_binary_op_method_name
 *fill*         0x000000001009bd46        0x2 
 .rodata.mp_builtin_isinstance_obj
                0x000000001009bd48        0x8 build-MT7687Lite/py/objtype.o
                0x000000001009bd48                mp_builtin_isinstance_obj
 .rodata.mp_builtin_issubclass.str1.1
                0x000000001009bd50       0x23 build-MT7687Lite/py/objtype.o
 *fill*         0x000000001009bd73        0x1 
 .rodata.mp_builtin_issubclass_obj
                0x000000001009bd74        0x8 build-MT7687Lite/py/objtype.o
                0x000000001009bd74                mp_builtin_issubclass_obj
 .rodata.mp_obj_class_lookup.str1.1
                0x000000001009bd7c       0x76 build-MT7687Lite/py/objtype.o
                                         0xa4 (size before relaxing)
 .rodata.mp_obj_instance_attr.str1.1
                0x000000001009bdf2       0x47 build-MT7687Lite/py/objtype.o
 .rodata.mp_obj_instance_call.str1.1
                0x000000001009be39       0x14 build-MT7687Lite/py/objtype.o
 .rodata.mp_obj_instance_make_new.str1.1
                0x000000001009be39       0x3c build-MT7687Lite/py/objtype.o
 .rodata.mp_obj_is_subclass.str1.1
                0x000000001009be75       0x39 build-MT7687Lite/py/objtype.o
 .rodata.mp_obj_new_instance.str1.1
                0x000000001009beae       0x15 build-MT7687Lite/py/objtype.o
 .rodata.mp_obj_new_type.str1.1
                0x000000001009bec3       0x52 build-MT7687Lite/py/objtype.o
 *fill*         0x000000001009bf15        0x3 
 .rodata.mp_type_classmethod
                0x000000001009bf18       0x3c build-MT7687Lite/py/objtype.o
                0x000000001009bf18                mp_type_classmethod
 .rodata.mp_type_staticmethod
                0x000000001009bf54       0x3c build-MT7687Lite/py/objtype.o
                0x000000001009bf54                mp_type_staticmethod
 .rodata.mp_type_super
                0x000000001009bf90       0x3c build-MT7687Lite/py/objtype.o
                0x000000001009bf90                mp_type_super
 .rodata.mp_type_type
                0x000000001009bfcc       0x3c build-MT7687Lite/py/objtype.o
                0x000000001009bfcc                mp_type_type
 .rodata.mp_unary_op_method_name
                0x000000001009c008        0x9 build-MT7687Lite/py/objtype.o
                0x000000001009c008                mp_unary_op_method_name
 *fill*         0x000000001009c011        0x3 
 .rodata.native_base_init_wrapper_obj
                0x000000001009c014        0xc build-MT7687Lite/py/objtype.o
 .rodata.static_class_method_make_new.str1.1
                0x000000001009c020       0x3e build-MT7687Lite/py/objtype.o
 .rodata.super_attr.str1.1
                0x000000001009c05e       0x7a build-MT7687Lite/py/objtype.o
 .rodata.super_print.str1.1
                0x000000001009c0d8        0x9 build-MT7687Lite/py/objtype.o
                                          0xe (size before relaxing)
 .rodata.type_attr.str1.1
                0x000000001009c0e1       0x8a build-MT7687Lite/py/objtype.o
 .rodata.type_call.str1.1
                0x000000001009c16b       0x17 build-MT7687Lite/py/objtype.o
 .rodata.type_make_new.str1.1
                0x000000001009c182       0x1c build-MT7687Lite/py/objtype.o
 .rodata.type_print.str1.1
                0x000000001009c19e        0xd build-MT7687Lite/py/objtype.o
 *fill*         0x000000001009c1ab        0x1 
 .rodata.mp_type_zip
                0x000000001009c1ac       0x3c build-MT7687Lite/py/objzip.o
                0x000000001009c1ac                mp_type_zip
 .rodata.mp_op_contains_obj
                0x000000001009c1e8        0x8 build-MT7687Lite/py/opmethods.o
                0x000000001009c1e8                mp_op_contains_obj
 .rodata.mp_op_delitem_obj
                0x000000001009c1f0        0x8 build-MT7687Lite/py/opmethods.o
                0x000000001009c1f0                mp_op_delitem_obj
 .rodata.mp_op_getitem_obj
                0x000000001009c1f8        0x8 build-MT7687Lite/py/opmethods.o
                0x000000001009c1f8                mp_op_getitem_obj
 .rodata.mp_op_setitem_obj
                0x000000001009c200        0x8 build-MT7687Lite/py/opmethods.o
                0x000000001009c200                mp_op_setitem_obj
 .rodata.mp_seq_get_fast_slice_indexes.str1.1
                0x000000001009c208       0x1a build-MT7687Lite/py/sequence.o
 .rodata.mp_seq_index_obj.str1.1
                0x000000001009c222       0x17 build-MT7687Lite/py/sequence.o
 .rodata.mp_get_stream_raise.str1.1
                0x000000001009c239       0x1f build-MT7687Lite/py/stream.o
 .rodata.mp_stream_close_obj
                0x000000001009c258        0x8 build-MT7687Lite/py/stream.o
                0x000000001009c258                mp_stream_close_obj
 .rodata.mp_stream_flush_obj
                0x000000001009c260        0x8 build-MT7687Lite/py/stream.o
                0x000000001009c260                mp_stream_flush_obj
 .rodata.mp_stream_read_obj
                0x000000001009c268        0xc build-MT7687Lite/py/stream.o
                0x000000001009c268                mp_stream_read_obj
 .rodata.mp_stream_readinto_obj
                0x000000001009c274        0xc build-MT7687Lite/py/stream.o
                0x000000001009c274                mp_stream_readinto_obj
 .rodata.mp_stream_seek_obj
                0x000000001009c280        0xc build-MT7687Lite/py/stream.o
                0x000000001009c280                mp_stream_seek_obj
 .rodata.mp_stream_tell_obj
                0x000000001009c28c        0x8 build-MT7687Lite/py/stream.o
                0x000000001009c28c                mp_stream_tell_obj
 .rodata.mp_stream_unbuffered_readline_obj
                0x000000001009c294        0xc build-MT7687Lite/py/stream.o
                0x000000001009c294                mp_stream_unbuffered_readline_obj
 .rodata.mp_stream_unbuffered_readlines_obj
                0x000000001009c2a0        0x8 build-MT7687Lite/py/stream.o
                0x000000001009c2a0                mp_stream_unbuffered_readlines_obj
 .rodata.mp_stream_write_obj
                0x000000001009c2a8        0xc build-MT7687Lite/py/stream.o
                0x000000001009c2a8                mp_stream_write_obj
 .rodata.CSWTCH.19
                0x000000001009c2b4       0x30 build-MT7687Lite/py/binary.o
 .rodata.CSWTCH.20
                0x000000001009c2e4       0x71 build-MT7687Lite/py/binary.o
 .rodata.CSWTCH.21
                0x000000001009c355       0x71 build-MT7687Lite/py/binary.o
 .rodata.mp_binary_get_size.str1.1
                0x000000001009c3c6        0xd build-MT7687Lite/py/binary.o
 .rodata.__func__.8811
                0x000000001009c3d3       0x16 build-MT7687Lite/py/builtinimport.o
 .rodata.mp_builtin___import__.str1.1
                0x000000001009c3e9       0x70 build-MT7687Lite/py/builtinimport.o
 *fill*         0x000000001009c459        0x3 
 .rodata.mp_builtin___import___obj
                0x000000001009c45c        0xc build-MT7687Lite/py/builtinimport.o
                0x000000001009c45c                mp_builtin___import___obj
 .rodata.stat_dir_or_file.str1.1
                0x000000001009c468       0x70 build-MT7687Lite/py/builtinimport.o
                                          0x4 (size before relaxing)
 .rodata.mp_builtin_eval_obj
                0x000000001009c468        0xc build-MT7687Lite/py/builtinevex.o
                0x000000001009c468                mp_builtin_eval_obj
 .rodata.mp_builtin_exec_obj
                0x000000001009c474        0xc build-MT7687Lite/py/builtinevex.o
                0x000000001009c474                mp_builtin_exec_obj
 .rodata.mp_builtin_execfile_obj
                0x000000001009c480        0xc build-MT7687Lite/py/builtinevex.o
                0x000000001009c480                mp_builtin_execfile_obj
 .rodata.mp_builtin_help.str1.1
                0x000000001009c48c       0x1d build-MT7687Lite/py/builtinhelp.o
                                         0x22 (size before relaxing)
 *fill*         0x000000001009c4a9        0x3 
 .rodata.mp_builtin_help_obj
                0x000000001009c4ac        0xc build-MT7687Lite/py/builtinhelp.o
                0x000000001009c4ac                mp_builtin_help_obj
 .rodata.mp_help_default_text
                0x000000001009c4b8      0x1b1 build-MT7687Lite/py/builtinhelp.o
                0x000000001009c4b8                mp_help_default_text
 *fill*         0x000000001009c669        0x3 
 .rodata.mp_module_array
                0x000000001009c66c        0x8 build-MT7687Lite/py/modarray.o
                0x000000001009c66c                mp_module_array
 .rodata.mp_module_array_globals
                0x000000001009c674       0x10 build-MT7687Lite/py/modarray.o
 .rodata.mp_module_array_globals_table
                0x000000001009c684       0x10 build-MT7687Lite/py/modarray.o
 .rodata.__func__.8632
                0x000000001009c694       0x1b build-MT7687Lite/py/modbuiltins.o
 *fill*         0x000000001009c6af        0x1 
 .rodata.allowed_args.8862
                0x000000001009c6b0       0x18 build-MT7687Lite/py/modbuiltins.o
 .rodata.mp_builtin___build_class__.str1.1
                0x000000001009c6c8       0x23 build-MT7687Lite/py/modbuiltins.o
 *fill*         0x000000001009c6eb        0x1 
 .rodata.mp_builtin___build_class___obj
                0x000000001009c6ec        0xc build-MT7687Lite/py/modbuiltins.o
                0x000000001009c6ec                mp_builtin___build_class___obj
 .rodata.mp_builtin___repl_print__.str1.1
                0x000000001009c6f8        0x2 build-MT7687Lite/py/modbuiltins.o
 .rodata.mp_builtin___repl_print___obj
                0x000000001009c6f8        0x8 build-MT7687Lite/py/modbuiltins.o
                0x000000001009c6f8                mp_builtin___repl_print___obj
 .rodata.mp_builtin_abs_obj
                0x000000001009c700        0x8 build-MT7687Lite/py/modbuiltins.o
                0x000000001009c700                mp_builtin_abs_obj
 .rodata.mp_builtin_all_obj
                0x000000001009c708        0x8 build-MT7687Lite/py/modbuiltins.o
                0x000000001009c708                mp_builtin_all_obj
 .rodata.mp_builtin_any_obj
                0x000000001009c710        0x8 build-MT7687Lite/py/modbuiltins.o
                0x000000001009c710                mp_builtin_any_obj
 .rodata.mp_builtin_bin_obj
                0x000000001009c718        0x8 build-MT7687Lite/py/modbuiltins.o
                0x000000001009c718                mp_builtin_bin_obj
 .rodata.mp_builtin_callable_obj
                0x000000001009c720        0x8 build-MT7687Lite/py/modbuiltins.o
                0x000000001009c720                mp_builtin_callable_obj
 .rodata.mp_builtin_chr.str1.1
                0x000000001009c728       0x21 build-MT7687Lite/py/modbuiltins.o
 *fill*         0x000000001009c749        0x3 
 .rodata.mp_builtin_chr_obj
                0x000000001009c74c        0x8 build-MT7687Lite/py/modbuiltins.o
                0x000000001009c74c                mp_builtin_chr_obj
 .rodata.mp_builtin_delattr_obj
                0x000000001009c754        0x8 build-MT7687Lite/py/modbuiltins.o
                0x000000001009c754                mp_builtin_delattr_obj
 .rodata.mp_builtin_dir_obj
                0x000000001009c75c        0xc build-MT7687Lite/py/modbuiltins.o
                0x000000001009c75c                mp_builtin_dir_obj
 .rodata.mp_builtin_divmod_obj
                0x000000001009c768        0x8 build-MT7687Lite/py/modbuiltins.o
                0x000000001009c768                mp_builtin_divmod_obj
 .rodata.mp_builtin_getattr_obj
                0x000000001009c770        0xc build-MT7687Lite/py/modbuiltins.o
                0x000000001009c770                mp_builtin_getattr_obj
 .rodata.mp_builtin_globals_obj
                0x000000001009c77c        0x8 build-MT7687Lite/py/modbuiltins.o
                0x000000001009c77c                mp_builtin_globals_obj
 .rodata.mp_builtin_hasattr_obj
                0x000000001009c784        0x8 build-MT7687Lite/py/modbuiltins.o
                0x000000001009c784                mp_builtin_hasattr_obj
 .rodata.mp_builtin_hash_obj
                0x000000001009c78c        0x8 build-MT7687Lite/py/modbuiltins.o
                0x000000001009c78c                mp_builtin_hash_obj
 .rodata.mp_builtin_hex_obj
                0x000000001009c794        0x8 build-MT7687Lite/py/modbuiltins.o
                0x000000001009c794                mp_builtin_hex_obj
 .rodata.mp_builtin_id_obj
                0x000000001009c79c        0x8 build-MT7687Lite/py/modbuiltins.o
                0x000000001009c79c                mp_builtin_id_obj
 .rodata.mp_builtin_input.str1.1
                0x000000001009c7a4        0x1 build-MT7687Lite/py/modbuiltins.o
 .rodata.mp_builtin_input_obj
                0x000000001009c7a4        0xc build-MT7687Lite/py/modbuiltins.o
                0x000000001009c7a4                mp_builtin_input_obj
 .rodata.mp_builtin_iter_obj
                0x000000001009c7b0        0x8 build-MT7687Lite/py/modbuiltins.o
                0x000000001009c7b0                mp_builtin_iter_obj
 .rodata.mp_builtin_len_obj
                0x000000001009c7b8        0x8 build-MT7687Lite/py/modbuiltins.o
                0x000000001009c7b8                mp_builtin_len_obj
 .rodata.mp_builtin_locals_obj
                0x000000001009c7c0        0x8 build-MT7687Lite/py/modbuiltins.o
                0x000000001009c7c0                mp_builtin_locals_obj
 .rodata.mp_builtin_max_obj
                0x000000001009c7c8        0xc build-MT7687Lite/py/modbuiltins.o
                0x000000001009c7c8                mp_builtin_max_obj
 .rodata.mp_builtin_min_max.str1.1
                0x000000001009c7d4       0x19 build-MT7687Lite/py/modbuiltins.o
 *fill*         0x000000001009c7ed        0x3 
 .rodata.mp_builtin_min_obj
                0x000000001009c7f0        0xc build-MT7687Lite/py/modbuiltins.o
                0x000000001009c7f0                mp_builtin_min_obj
 .rodata.mp_builtin_next_obj
                0x000000001009c7fc        0x8 build-MT7687Lite/py/modbuiltins.o
                0x000000001009c7fc                mp_builtin_next_obj
 .rodata.mp_builtin_oct_obj
                0x000000001009c804        0x8 build-MT7687Lite/py/modbuiltins.o
                0x000000001009c804                mp_builtin_oct_obj
 .rodata.mp_builtin_ord.str1.1
                0x000000001009c80c       0x18 build-MT7687Lite/py/modbuiltins.o
 .rodata.mp_builtin_ord_obj
                0x000000001009c824        0x8 build-MT7687Lite/py/modbuiltins.o
                0x000000001009c824                mp_builtin_ord_obj
 .rodata.mp_builtin_pow.str1.1
                0x000000001009c82c       0x1a build-MT7687Lite/py/modbuiltins.o
 *fill*         0x000000001009c846        0x2 
 .rodata.mp_builtin_pow_obj
                0x000000001009c848        0xc build-MT7687Lite/py/modbuiltins.o
                0x000000001009c848                mp_builtin_pow_obj
 .rodata.mp_builtin_print_obj
                0x000000001009c854        0xc build-MT7687Lite/py/modbuiltins.o
                0x000000001009c854                mp_builtin_print_obj
 .rodata.mp_builtin_repr_obj
                0x000000001009c860        0x8 build-MT7687Lite/py/modbuiltins.o
                0x000000001009c860                mp_builtin_repr_obj
 .rodata.mp_builtin_round_obj
                0x000000001009c868        0xc build-MT7687Lite/py/modbuiltins.o
                0x000000001009c868                mp_builtin_round_obj
 .rodata.mp_builtin_setattr_obj
                0x000000001009c874        0x8 build-MT7687Lite/py/modbuiltins.o
                0x000000001009c874                mp_builtin_setattr_obj
 .rodata.mp_builtin_sorted.str1.1
                0x000000001009c87c       0x2b build-MT7687Lite/py/modbuiltins.o
 *fill*         0x000000001009c8a7        0x1 
 .rodata.mp_builtin_sorted_obj
                0x000000001009c8a8        0xc build-MT7687Lite/py/modbuiltins.o
                0x000000001009c8a8                mp_builtin_sorted_obj
 .rodata.mp_builtin_sum_obj
                0x000000001009c8b4        0xc build-MT7687Lite/py/modbuiltins.o
                0x000000001009c8b4                mp_builtin_sum_obj
 .rodata.mp_module_builtins
                0x000000001009c8c0        0x8 build-MT7687Lite/py/modbuiltins.o
                0x000000001009c8c0                mp_module_builtins
 .rodata.mp_module_builtins_globals
                0x000000001009c8c8       0x10 build-MT7687Lite/py/modbuiltins.o
                0x000000001009c8c8                mp_module_builtins_globals
 .rodata.mp_module_builtins_globals_table
                0x000000001009c8d8      0x2e8 build-MT7687Lite/py/modbuiltins.o
 .rodata.mp_module_collections
                0x000000001009cbc0        0x8 build-MT7687Lite/py/modcollections.o
                0x000000001009cbc0                mp_module_collections
 .rodata.mp_module_collections_globals
                0x000000001009cbc8       0x10 build-MT7687Lite/py/modcollections.o
 .rodata.mp_module_collections_globals_table
                0x000000001009cbd8       0x18 build-MT7687Lite/py/modcollections.o
 .rodata.gc_collect_obj
                0x000000001009cbf0        0x8 build-MT7687Lite/py/modgc.o
                0x000000001009cbf0                gc_collect_obj
 .rodata.gc_disable_obj
                0x000000001009cbf8        0x8 build-MT7687Lite/py/modgc.o
                0x000000001009cbf8                gc_disable_obj
 .rodata.gc_enable_obj
                0x000000001009cc00        0x8 build-MT7687Lite/py/modgc.o
                0x000000001009cc00                gc_enable_obj
 .rodata.gc_isenabled_obj
                0x000000001009cc08        0x8 build-MT7687Lite/py/modgc.o
                0x000000001009cc08                gc_isenabled_obj
 .rodata.gc_mem_alloc_obj
                0x000000001009cc10        0x8 build-MT7687Lite/py/modgc.o
                0x000000001009cc10                gc_mem_alloc_obj
 .rodata.gc_mem_free_obj
                0x000000001009cc18        0x8 build-MT7687Lite/py/modgc.o
                0x000000001009cc18                gc_mem_free_obj
 .rodata.gc_threshold_obj
                0x000000001009cc20        0xc build-MT7687Lite/py/modgc.o
                0x000000001009cc20                gc_threshold_obj
 .rodata.mp_module_gc
                0x000000001009cc2c        0x8 build-MT7687Lite/py/modgc.o
                0x000000001009cc2c                mp_module_gc
 .rodata.mp_module_gc_globals
                0x000000001009cc34       0x10 build-MT7687Lite/py/modgc.o
 .rodata.mp_module_gc_globals_table
                0x000000001009cc44       0x40 build-MT7687Lite/py/modgc.o
 .rodata.mp_module_io
                0x000000001009cc84        0x8 build-MT7687Lite/py/modio.o
                0x000000001009cc84                mp_module_io
 .rodata.mp_module_io_globals
                0x000000001009cc8c       0x10 build-MT7687Lite/py/modio.o
 .rodata.mp_module_io_globals_table
                0x000000001009cc9c       0x30 build-MT7687Lite/py/modio.o
 .rodata.mp_alloc_emergency_exception_buf_obj
                0x000000001009cccc        0x8 build-MT7687Lite/py/modmicropython.o
 .rodata.mp_micropython_heap_lock_obj
                0x000000001009ccd4        0x8 build-MT7687Lite/py/modmicropython.o
 .rodata.mp_micropython_heap_unlock_obj
                0x000000001009ccdc        0x8 build-MT7687Lite/py/modmicropython.o
 .rodata.mp_micropython_kbd_intr_obj
                0x000000001009cce4        0x8 build-MT7687Lite/py/modmicropython.o
 .rodata.mp_micropython_opt_level_obj
                0x000000001009ccec        0xc build-MT7687Lite/py/modmicropython.o
 .rodata.mp_module_micropython
                0x000000001009ccf8        0x8 build-MT7687Lite/py/modmicropython.o
                0x000000001009ccf8                mp_module_micropython
 .rodata.mp_module_micropython_globals
                0x000000001009cd00       0x10 build-MT7687Lite/py/modmicropython.o
 .rodata.mp_module_micropython_globals_table
                0x000000001009cd10       0x38 build-MT7687Lite/py/modmicropython.o
 .rodata.mp_module_struct_globals
                0x000000001009cd48       0x10 build-MT7687Lite/py/modstruct.o
 .rodata.mp_module_struct_globals_table
                0x000000001009cd58       0x30 build-MT7687Lite/py/modstruct.o
 .rodata.mp_module_ustruct
                0x000000001009cd88        0x8 build-MT7687Lite/py/modstruct.o
                0x000000001009cd88                mp_module_ustruct
 .rodata.struct_calcsize_obj
                0x000000001009cd90        0x8 build-MT7687Lite/py/modstruct.o
                0x000000001009cd90                struct_calcsize_obj
 .rodata.struct_pack_into_obj
                0x000000001009cd98        0xc build-MT7687Lite/py/modstruct.o
                0x000000001009cd98                struct_pack_into_obj
 .rodata.struct_pack_obj
                0x000000001009cda4        0xc build-MT7687Lite/py/modstruct.o
                0x000000001009cda4                struct_pack_obj
 .rodata.struct_unpack_from.str1.1
                0x000000001009cdb0       0x11 build-MT7687Lite/py/modstruct.o
 *fill*         0x000000001009cdc1        0x3 
 .rodata.struct_unpack_from_obj
                0x000000001009cdc4        0xc build-MT7687Lite/py/modstruct.o
                0x000000001009cdc4                struct_unpack_from_obj
 .rodata.impl_fields
                0x000000001009cdd0        0x8 build-MT7687Lite/py/modsys.o
 .rodata.mp_module_sys
                0x000000001009cdd8        0x8 build-MT7687Lite/py/modsys.o
                0x000000001009cdd8                mp_module_sys
 .rodata.mp_module_sys_globals
                0x000000001009cde0       0x10 build-MT7687Lite/py/modsys.o
 .rodata.mp_module_sys_globals_table
                0x000000001009cdf0       0x70 build-MT7687Lite/py/modsys.o
 .rodata.mp_sys_exit_obj
                0x000000001009ce60        0xc build-MT7687Lite/py/modsys.o
                0x000000001009ce60                mp_sys_exit_obj
 .rodata.mp_sys_implementation_obj
                0x000000001009ce6c       0x14 build-MT7687Lite/py/modsys.o
 .rodata.mp_sys_implementation_version_info_obj
                0x000000001009ce80       0x14 build-MT7687Lite/py/modsys.o
 .rodata.mp_sys_print_exception_obj
                0x000000001009ce94        0xc build-MT7687Lite/py/modsys.o
                0x000000001009ce94                mp_sys_print_exception_obj
 .rodata.mp_sys_stdout_print
                0x000000001009cea0        0x8 build-MT7687Lite/py/modsys.o
                0x000000001009cea0                mp_sys_stdout_print
 .rodata.mp_sys_version_info_obj
                0x000000001009cea8       0x14 build-MT7687Lite/py/modsys.o
 .rodata.str1.1
                0x000000001009cebc        0x6 build-MT7687Lite/py/modsys.o
 *fill*         0x000000001009cec2        0x2 
 .rodata.version_obj
                0x000000001009cec4       0x10 build-MT7687Lite/py/modsys.o
 .rodata.mp_module_uerrno
                0x000000001009ced4        0x8 build-MT7687Lite/py/moduerrno.o
                0x000000001009ced4                mp_module_uerrno
 .rodata.mp_module_uerrno_globals
                0x000000001009cedc       0x10 build-MT7687Lite/py/moduerrno.o
 .rodata.mp_module_uerrno_globals_table
                0x000000001009ceec       0x30 build-MT7687Lite/py/moduerrno.o
 .rodata.mod_thread_allocate_lock_obj
                0x000000001009cf1c        0x8 build-MT7687Lite/py/modthread.o
 .rodata.mod_thread_exit_obj
                0x000000001009cf24        0x8 build-MT7687Lite/py/modthread.o
 .rodata.mod_thread_get_ident_obj
                0x000000001009cf2c        0x8 build-MT7687Lite/py/modthread.o
 .rodata.mod_thread_stack_size_obj
                0x000000001009cf34        0xc build-MT7687Lite/py/modthread.o
 .rodata.mod_thread_start_new_thread.str1.1
                0x000000001009cf40       0x22 build-MT7687Lite/py/modthread.o
 *fill*         0x000000001009cf62        0x2 
 .rodata.mod_thread_start_new_thread_obj
                0x000000001009cf64        0xc build-MT7687Lite/py/modthread.o
 .rodata.mp_module_thread
                0x000000001009cf70        0x8 build-MT7687Lite/py/modthread.o
                0x000000001009cf70                mp_module_thread
 .rodata.mp_module_thread_globals
                0x000000001009cf78       0x10 build-MT7687Lite/py/modthread.o
 .rodata.mp_module_thread_globals_table
                0x000000001009cf88       0x38 build-MT7687Lite/py/modthread.o
 .rodata.mp_type_thread_lock
                0x000000001009cfc0       0x3c build-MT7687Lite/py/modthread.o
 .rodata.thread_entry.str1.1
                0x000000001009cffc       0x2a build-MT7687Lite/py/modthread.o
                                         0x2c (size before relaxing)
 *fill*         0x000000001009d026        0x2 
 .rodata.thread_lock___exit___obj
                0x000000001009d028        0xc build-MT7687Lite/py/modthread.o
 .rodata.thread_lock_acquire_obj
                0x000000001009d034        0xc build-MT7687Lite/py/modthread.o
 .rodata.thread_lock_locals_dict
                0x000000001009d040       0x10 build-MT7687Lite/py/modthread.o
 .rodata.thread_lock_locals_dict_table
                0x000000001009d050       0x28 build-MT7687Lite/py/modthread.o
 .rodata.thread_lock_locked_obj
                0x000000001009d078        0x8 build-MT7687Lite/py/modthread.o
 .rodata.thread_lock_release_obj
                0x000000001009d080        0x8 build-MT7687Lite/py/modthread.o
 .rodata.__func__.8593
                0x000000001009d088       0x14 build-MT7687Lite/py/vm.o
 .rodata.mp_execute_bytecode.str1.4
                0x000000001009d09c      0x108 build-MT7687Lite/py/vm.o
                                        0x107 (size before relaxing)
 .rodata.mp_setup_code_state.str1.1
                0x000000001009d1a4       0xd4 build-MT7687Lite/py/bc.o
 .rodata.opcode_format_table
                0x000000001009d278       0x40 build-MT7687Lite/py/bc.o
 .rodata.import_str.8508
                0x000000001009d2b8        0x8 build-MT7687Lite/py/repl.o
 .rodata.mp_repl_autocomplete.str1.1
                0x000000001009d2c0        0x4 build-MT7687Lite/py/repl.o
                                          0x8 (size before relaxing)
 .rodata.mp_repl_continue_with_input.str1.1
                0x000000001009d2c4       0x20 build-MT7687Lite/py/repl.o
 .rodata.mod_ujson_dump_obj
                0x000000001009d2c4        0x8 build-MT7687Lite/extmod/modujson.o
 .rodata.mod_ujson_dumps_obj
                0x000000001009d2cc        0x8 build-MT7687Lite/extmod/modujson.o
 .rodata.mod_ujson_load.str1.1
                0x000000001009d2d4       0x15 build-MT7687Lite/extmod/modujson.o
 *fill*         0x000000001009d2e9        0x3 
 .rodata.mod_ujson_load_obj
                0x000000001009d2ec        0x8 build-MT7687Lite/extmod/modujson.o
 .rodata.mod_ujson_loads_obj
                0x000000001009d2f4        0x8 build-MT7687Lite/extmod/modujson.o
 .rodata.mp_module_ujson
                0x000000001009d2fc        0x8 build-MT7687Lite/extmod/modujson.o
                0x000000001009d2fc                mp_module_ujson
 .rodata.mp_module_ujson_globals
                0x000000001009d304       0x10 build-MT7687Lite/extmod/modujson.o
 .rodata.mp_module_ujson_globals_table
                0x000000001009d314       0x28 build-MT7687Lite/extmod/modujson.o
 .rodata.__func__.9177
                0x000000001009d33c        0xf build-MT7687Lite/extmod/modure.o
 .rodata.__func__.9220
                0x000000001009d34b        0xe build-MT7687Lite/extmod/modure.o
 *fill*         0x000000001009d359        0x3 
 .rodata.match_group_obj
                0x000000001009d35c        0x8 build-MT7687Lite/extmod/modure.o
                0x000000001009d35c                match_group_obj
 .rodata.match_locals_dict
                0x000000001009d364       0x10 build-MT7687Lite/extmod/modure.o
 .rodata.match_locals_dict_table
                0x000000001009d374        0x8 build-MT7687Lite/extmod/modure.o
 .rodata.match_print.str1.1
                0x000000001009d37c        0xf build-MT7687Lite/extmod/modure.o
 *fill*         0x000000001009d38b        0x1 
 .rodata.match_type
                0x000000001009d38c       0x3c build-MT7687Lite/extmod/modure.o
 .rodata.mod_re_compile.str1.1
                0x000000001009d3c8        0xf build-MT7687Lite/extmod/modure.o
 *fill*         0x000000001009d3d7        0x1 
 .rodata.mod_re_compile_obj
                0x000000001009d3d8        0xc build-MT7687Lite/extmod/modure.o
                0x000000001009d3d8                mod_re_compile_obj
 .rodata.mod_re_match_obj
                0x000000001009d3e4        0xc build-MT7687Lite/extmod/modure.o
                0x000000001009d3e4                mod_re_match_obj
 .rodata.mod_re_search_obj
                0x000000001009d3f0        0xc build-MT7687Lite/extmod/modure.o
                0x000000001009d3f0                mod_re_search_obj
 .rodata.mp_module_re_globals
                0x000000001009d3fc       0x10 build-MT7687Lite/extmod/modure.o
 .rodata.mp_module_re_globals_table
                0x000000001009d40c       0x28 build-MT7687Lite/extmod/modure.o
 .rodata.mp_module_ure
                0x000000001009d434        0x8 build-MT7687Lite/extmod/modure.o
                0x000000001009d434                mp_module_ure
 .rodata.re1_5_dumpcode.str1.1
                0x000000001009d43c       0xa8 build-MT7687Lite/extmod/modure.o
                                         0xc8 (size before relaxing)
 .rodata.re_locals_dict
                0x000000001009d4e4       0x10 build-MT7687Lite/extmod/modure.o
 .rodata.re_locals_dict_table
                0x000000001009d4f4       0x18 build-MT7687Lite/extmod/modure.o
 .rodata.re_match_obj
                0x000000001009d50c        0xc build-MT7687Lite/extmod/modure.o
                0x000000001009d50c                re_match_obj
 .rodata.re_print.str1.1
                0x000000001009d518        0x8 build-MT7687Lite/extmod/modure.o
 .rodata.re_search_obj
                0x000000001009d520        0xc build-MT7687Lite/extmod/modure.o
                0x000000001009d520                re_search_obj
 .rodata.re_split.str1.1
                0x000000001009d52c       0x1c build-MT7687Lite/extmod/modure.o
 .rodata.re_split_obj
                0x000000001009d548        0xc build-MT7687Lite/extmod/modure.o
                0x000000001009d548                re_split_obj
 .rodata.re_type
                0x000000001009d554       0x3c build-MT7687Lite/extmod/modure.o
 .rodata.recursiveloop.str1.1
                0x000000001009d590       0x34 build-MT7687Lite/extmod/modure.o
 .rodata.mod_binascii_a2b_base64.str1.1
                0x000000001009d5c4       0x12 build-MT7687Lite/extmod/modubinascii.o
 *fill*         0x000000001009d5d6        0x2 
 .rodata.mod_binascii_a2b_base64_obj
                0x000000001009d5d8        0x8 build-MT7687Lite/extmod/modubinascii.o
                0x000000001009d5d8                mod_binascii_a2b_base64_obj
 .rodata.mod_binascii_b2a_base64_obj
                0x000000001009d5e0        0x8 build-MT7687Lite/extmod/modubinascii.o
                0x000000001009d5e0                mod_binascii_b2a_base64_obj
 .rodata.mod_binascii_hexlify_obj
                0x000000001009d5e8        0xc build-MT7687Lite/extmod/modubinascii.o
                0x000000001009d5e8                mod_binascii_hexlify_obj
 .rodata.mod_binascii_unhexlify.str1.1
                0x000000001009d5f4       0x26 build-MT7687Lite/extmod/modubinascii.o
 *fill*         0x000000001009d61a        0x2 
 .rodata.mod_binascii_unhexlify_obj
                0x000000001009d61c        0x8 build-MT7687Lite/extmod/modubinascii.o
                0x000000001009d61c                mod_binascii_unhexlify_obj
 .rodata.__func__.8420
                0x000000001009d624        0xe build-MT7687Lite/extmod/moduselect.o
 *fill*         0x000000001009d632        0x2 
 .rodata.mp_module_select_globals
                0x000000001009d634       0x10 build-MT7687Lite/extmod/moduselect.o
 .rodata.mp_module_select_globals_table
                0x000000001009d644       0x38 build-MT7687Lite/extmod/moduselect.o
 .rodata.mp_module_uselect
                0x000000001009d67c        0x8 build-MT7687Lite/extmod/moduselect.o
                0x000000001009d67c                mp_module_uselect
 .rodata.mp_select_poll_obj
                0x000000001009d684        0x8 build-MT7687Lite/extmod/moduselect.o
                0x000000001009d684                mp_select_poll_obj
 .rodata.mp_select_select_obj
                0x000000001009d68c        0xc build-MT7687Lite/extmod/moduselect.o
                0x000000001009d68c                mp_select_select_obj
 .rodata.mp_type_poll
                0x000000001009d698       0x3c build-MT7687Lite/extmod/moduselect.o
 .rodata.poll_ipoll_obj
                0x000000001009d6d4        0xc build-MT7687Lite/extmod/moduselect.o
                0x000000001009d6d4                poll_ipoll_obj
 .rodata.poll_iternext.str1.1
                0x000000001009d6e0       0x48 build-MT7687Lite/extmod/moduselect.o
 .rodata.poll_locals_dict
                0x000000001009d728       0x10 build-MT7687Lite/extmod/moduselect.o
 .rodata.poll_locals_dict_table
                0x000000001009d738       0x28 build-MT7687Lite/extmod/moduselect.o
 .rodata.poll_modify_obj
                0x000000001009d760        0x8 build-MT7687Lite/extmod/moduselect.o
                0x000000001009d760                poll_modify_obj
 .rodata.poll_poll_obj
                0x000000001009d768        0xc build-MT7687Lite/extmod/moduselect.o
                0x000000001009d768                poll_poll_obj
 .rodata.poll_register_obj
                0x000000001009d774        0xc build-MT7687Lite/extmod/moduselect.o
                0x000000001009d774                poll_register_obj
 .rodata.poll_unregister_obj
                0x000000001009d780        0x8 build-MT7687Lite/extmod/moduselect.o
                0x000000001009d780                poll_unregister_obj
 .rodata.__func__.8893
                0x000000001009d788       0x12 build-MT7687Lite/extmod/vfs.o
 *fill*         0x000000001009d79a        0x2 
 .rodata.allowed_args.8914
                0x000000001009d79c       0x10 build-MT7687Lite/extmod/vfs.o
 .rodata.allowed_args.8948
                0x000000001009d7ac       0x20 build-MT7687Lite/extmod/vfs.o
 .rodata.mp_vfs_chdir_obj
                0x000000001009d7cc        0x8 build-MT7687Lite/extmod/vfs.o
                0x000000001009d7cc                mp_vfs_chdir_obj
 .rodata.mp_vfs_getcwd_obj
                0x000000001009d7d4        0x8 build-MT7687Lite/extmod/vfs.o
                0x000000001009d7d4                mp_vfs_getcwd_obj
 .rodata.mp_vfs_ilistdir_obj
                0x000000001009d7dc        0xc build-MT7687Lite/extmod/vfs.o
                0x000000001009d7dc                mp_vfs_ilistdir_obj
 .rodata.mp_vfs_listdir_obj
                0x000000001009d7e8        0xc build-MT7687Lite/extmod/vfs.o
                0x000000001009d7e8                mp_vfs_listdir_obj
 .rodata.mp_vfs_lookup_path.str1.1
                0x000000001009d7f4       0x48 build-MT7687Lite/extmod/vfs.o
                                          0x2 (size before relaxing)
 .rodata.mp_vfs_mkdir_obj
                0x000000001009d7f4        0x8 build-MT7687Lite/extmod/vfs.o
                0x000000001009d7f4                mp_vfs_mkdir_obj
 .rodata.mp_vfs_mount_obj
                0x000000001009d7fc        0xc build-MT7687Lite/extmod/vfs.o
                0x000000001009d7fc                mp_vfs_mount_obj
 .rodata.mp_vfs_open_obj
                0x000000001009d808        0xc build-MT7687Lite/extmod/vfs.o
                0x000000001009d808                mp_vfs_open_obj
 .rodata.mp_vfs_proxy_call.str1.1
                0x000000001009d814       0x2c build-MT7687Lite/extmod/vfs.o
 .rodata.mp_vfs_remove_obj
                0x000000001009d840        0x8 build-MT7687Lite/extmod/vfs.o
                0x000000001009d840                mp_vfs_remove_obj
 .rodata.mp_vfs_rename_obj
                0x000000001009d848        0x8 build-MT7687Lite/extmod/vfs.o
                0x000000001009d848                mp_vfs_rename_obj
 .rodata.mp_vfs_rmdir_obj
                0x000000001009d850        0x8 build-MT7687Lite/extmod/vfs.o
                0x000000001009d850                mp_vfs_rmdir_obj
 .rodata.mp_vfs_stat_obj
                0x000000001009d858        0x8 build-MT7687Lite/extmod/vfs.o
                0x000000001009d858                mp_vfs_stat_obj
 .rodata.mp_vfs_umount_obj
                0x000000001009d860        0x8 build-MT7687Lite/extmod/vfs.o
                0x000000001009d860                mp_vfs_umount_obj
 .rodata.__func__.8836
                0x000000001009d868       0x14 build-MT7687Lite/extmod/vfs_fat.o
 .rodata.fat_vfs_chdir_obj
                0x000000001009d87c        0x8 build-MT7687Lite/extmod/vfs_fat.o
 .rodata.fat_vfs_del_obj
                0x000000001009d884        0x8 build-MT7687Lite/extmod/vfs_fat.o
 .rodata.fat_vfs_getcwd_obj
                0x000000001009d88c        0x8 build-MT7687Lite/extmod/vfs_fat.o
 .rodata.fat_vfs_ilistdir_func.str1.1
                0x000000001009d894        0x1 build-MT7687Lite/extmod/vfs_fat.o
 .rodata.fat_vfs_ilistdir_obj
                0x000000001009d894        0xc build-MT7687Lite/extmod/vfs_fat.o
 .rodata.fat_vfs_import_stat.str1.1
                0x000000001009d8a0       0x23 build-MT7687Lite/extmod/vfs_fat.o
 *fill*         0x000000001009d8c3        0x1 
 .rodata.fat_vfs_locals_dict
                0x000000001009d8c4       0x10 build-MT7687Lite/extmod/vfs_fat.o
 .rodata.fat_vfs_locals_dict_table
                0x000000001009d8d4       0x70 build-MT7687Lite/extmod/vfs_fat.o
 .rodata.fat_vfs_mkdir_obj
                0x000000001009d944        0x8 build-MT7687Lite/extmod/vfs_fat.o
 .rodata.fat_vfs_mkfs_fun_obj
                0x000000001009d94c        0x8 build-MT7687Lite/extmod/vfs_fat.o
 .rodata.fat_vfs_mkfs_obj
                0x000000001009d954        0x8 build-MT7687Lite/extmod/vfs_fat.o
 .rodata.fat_vfs_proto
                0x000000001009d95c        0x4 build-MT7687Lite/extmod/vfs_fat.o
 .rodata.fat_vfs_remove_obj
                0x000000001009d960        0x8 build-MT7687Lite/extmod/vfs_fat.o
 .rodata.fat_vfs_rename_obj
                0x000000001009d968        0x8 build-MT7687Lite/extmod/vfs_fat.o
 .rodata.fat_vfs_rmdir_obj
                0x000000001009d970        0x8 build-MT7687Lite/extmod/vfs_fat.o
 .rodata.fat_vfs_stat_obj
                0x000000001009d978        0x8 build-MT7687Lite/extmod/vfs_fat.o
 .rodata.fat_vfs_statvfs_obj
                0x000000001009d980        0x8 build-MT7687Lite/extmod/vfs_fat.o
 .rodata.fat_vfs_umount_obj
                0x000000001009d988        0x8 build-MT7687Lite/extmod/vfs_fat.o
 .rodata.mp_fat_vfs_type
                0x000000001009d990       0x3c build-MT7687Lite/extmod/vfs_fat.o
                0x000000001009d990                mp_fat_vfs_type
 .rodata.vfs_fat_mount_obj
                0x000000001009d9cc        0x8 build-MT7687Lite/extmod/vfs_fat.o
 .rodata.op_map.8773
                0x000000001009d9d4        0x8 build-MT7687Lite/extmod/vfs_fat_diskio.o
 .rodata.__func__.8741
                0x000000001009d9dc        0xa build-MT7687Lite/extmod/vfs_fat_file.o
 *fill*         0x000000001009d9e6        0x2 
 .rodata.fat_vfs_open_obj
                0x000000001009d9e8        0x8 build-MT7687Lite/extmod/vfs_fat_file.o
                0x000000001009d9e8                fat_vfs_open_obj
 .rodata.file_obj___exit___obj
                0x000000001009d9f0        0xc build-MT7687Lite/extmod/vfs_fat_file.o
 .rodata.file_obj_print.str1.1
                0x000000001009d9fc        0xb build-MT7687Lite/extmod/vfs_fat_file.o
 .rodata.file_open.str1.1
                0x000000001009da07       0x1c build-MT7687Lite/extmod/vfs_fat_file.o
                                         0x28 (size before relaxing)
 *fill*         0x000000001009da23        0x1 
 .rodata.file_open_args
                0x000000001009da24       0x18 build-MT7687Lite/extmod/vfs_fat_file.o
 .rodata.fileio_stream_p
                0x000000001009da3c       0x10 build-MT7687Lite/extmod/vfs_fat_file.o
 .rodata.fresult_to_errno_table
                0x000000001009da4c       0x14 build-MT7687Lite/extmod/vfs_fat_file.o
                0x000000001009da4c                fresult_to_errno_table
 .rodata.mp_type_vfs_fat_fileio
                0x000000001009da60       0x3c build-MT7687Lite/extmod/vfs_fat_file.o
                0x000000001009da60                mp_type_vfs_fat_fileio
 .rodata.mp_type_vfs_fat_textio
                0x000000001009da9c       0x3c build-MT7687Lite/extmod/vfs_fat_file.o
                0x000000001009da9c                mp_type_vfs_fat_textio
 .rodata.rawfile_locals_dict
                0x000000001009dad8       0x10 build-MT7687Lite/extmod/vfs_fat_file.o
 .rodata.rawfile_locals_dict_table
                0x000000001009dae8       0x60 build-MT7687Lite/extmod/vfs_fat_file.o
 .rodata.textio_stream_p
                0x000000001009db48       0x10 build-MT7687Lite/extmod/vfs_fat_file.o
 .rodata.mp_utime_sleep_ms_obj
                0x000000001009db58        0x8 build-MT7687Lite/extmod/utime_mphal.o
                0x000000001009db58                mp_utime_sleep_ms_obj
 .rodata.mp_utime_sleep_us_obj
                0x000000001009db60        0x8 build-MT7687Lite/extmod/utime_mphal.o
                0x000000001009db60                mp_utime_sleep_us_obj
 .rodata.mp_utime_ticks_add_obj
                0x000000001009db68        0x8 build-MT7687Lite/extmod/utime_mphal.o
                0x000000001009db68                mp_utime_ticks_add_obj
 .rodata.mp_utime_ticks_cpu_obj
                0x000000001009db70        0x8 build-MT7687Lite/extmod/utime_mphal.o
                0x000000001009db70                mp_utime_ticks_cpu_obj
 .rodata.mp_utime_ticks_diff_obj
                0x000000001009db78        0x8 build-MT7687Lite/extmod/utime_mphal.o
                0x000000001009db78                mp_utime_ticks_diff_obj
 .rodata.mp_utime_ticks_ms_obj
                0x000000001009db80        0x8 build-MT7687Lite/extmod/utime_mphal.o
                0x000000001009db80                mp_utime_ticks_ms_obj
 .rodata.mp_utime_ticks_us_obj
                0x000000001009db88        0x8 build-MT7687Lite/extmod/utime_mphal.o
                0x000000001009db88                mp_utime_ticks_us_obj
 .rodata.TASK_MicroPython.str1.1
                0x000000001009db90       0x12 build-MT7687Lite/main.o
                                         0x22 (size before relaxing)
 .rodata.fresh_boot_py
                0x000000001009dba2       0x90 build-MT7687Lite/main.o
 .rodata.fresh_main_py
                0x000000001009dc32       0x23 build-MT7687Lite/main.o
 .rodata.init_sflash_filesystem.str1.1
                0x000000001009dc55       0x41 build-MT7687Lite/main.o
                                         0x4a (size before relaxing)
 .rodata.main.str1.1
                0x000000001009dc96        0x8 build-MT7687Lite/main.o
 .rodata.mp_hal_stdout_tx_strn_cooked.str1.1
                0x000000001009dc9e        0x8 build-MT7687Lite/mphalport.o
                                          0x3 (size before relaxing)
 .rodata.mp_thread_create.str1.1
                0x000000001009dc9e       0x1b build-MT7687Lite/mpthreadport.o
 .rodata.vTaskStartScheduler.str1.1
                0x000000001009dcb9        0x5 build-MT7687Lite/rtos/Source/tasks.o
 *fill*         0x000000001009dcbe        0x2 
 .rodata.mp_module_uos
                0x000000001009dcc0        0x8 build-MT7687Lite/mods/moduos.o
                0x000000001009dcc0                mp_module_uos
 .rodata.os_dupterm_obj
                0x000000001009dcc8        0xc build-MT7687Lite/mods/moduos.o
 .rodata.os_module_globals
                0x000000001009dcd4       0x10 build-MT7687Lite/mods/moduos.o
 .rodata.os_module_globals_table
                0x000000001009dce4       0x90 build-MT7687Lite/mods/moduos.o
 .rodata.os_sync_obj
                0x000000001009dd74        0x8 build-MT7687Lite/mods/moduos.o
 .rodata.os_uname_info_fields
                0x000000001009dd7c       0x14 build-MT7687Lite/mods/moduos.o
 .rodata.os_uname_info_machine_obj
                0x000000001009dd90       0x10 build-MT7687Lite/mods/moduos.o
 .rodata.os_uname_info_nodename_obj
                0x000000001009dda0       0x10 build-MT7687Lite/mods/moduos.o
 .rodata.os_uname_info_obj
                0x000000001009ddb0       0x20 build-MT7687Lite/mods/moduos.o
 .rodata.os_uname_info_release_obj
                0x000000001009ddd0       0x10 build-MT7687Lite/mods/moduos.o
 .rodata.os_uname_info_sysname_obj
                0x000000001009dde0       0x10 build-MT7687Lite/mods/moduos.o
 .rodata.os_uname_info_version_obj
                0x000000001009ddf0       0x10 build-MT7687Lite/mods/moduos.o
 .rodata.os_uname_obj
                0x000000001009de00        0x8 build-MT7687Lite/mods/moduos.o
 .rodata.os_urandom_obj
                0x000000001009de08        0x8 build-MT7687Lite/mods/moduos.o
 .rodata.str1.1
                0x000000001009de10       0x4a build-MT7687Lite/mods/moduos.o
 *fill*         0x000000001009de5a        0x2 
 .rodata.machine_deepsleep_obj
                0x000000001009de5c        0x8 build-MT7687Lite/mods/modmachine.o
 .rodata.machine_freq_obj
                0x000000001009de64        0x8 build-MT7687Lite/mods/modmachine.o
 .rodata.machine_idle_obj
                0x000000001009de6c        0x8 build-MT7687Lite/mods/modmachine.o
 .rodata.machine_info.str1.1
                0x000000001009de74       0x60 build-MT7687Lite/mods/modmachine.o
 .rodata.machine_info_obj
                0x000000001009ded4        0xc build-MT7687Lite/mods/modmachine.o
 .rodata.machine_main_obj
                0x000000001009dee0        0x8 build-MT7687Lite/mods/modmachine.o
                0x000000001009dee0                machine_main_obj
 .rodata.machine_module
                0x000000001009dee8        0x8 build-MT7687Lite/mods/modmachine.o
                0x000000001009dee8                machine_module
 .rodata.machine_module_globals
                0x000000001009def0       0x10 build-MT7687Lite/mods/modmachine.o
 .rodata.machine_module_globals_table
                0x000000001009df00       0x80 build-MT7687Lite/mods/modmachine.o
 .rodata.machine_reset_cause_obj
                0x000000001009df80        0x8 build-MT7687Lite/mods/modmachine.o
 .rodata.machine_reset_obj
                0x000000001009df88        0x8 build-MT7687Lite/mods/modmachine.o
 .rodata.machine_sleep_obj
                0x000000001009df90        0x8 build-MT7687Lite/mods/modmachine.o
 .rodata.machine_unique_id_obj
                0x000000001009df98        0x8 build-MT7687Lite/mods/modmachine.o
 .rodata.machine_wake_reason_obj
                0x000000001009dfa0        0x8 build-MT7687Lite/mods/modmachine.o
 .rodata.mp_module_utime
                0x000000001009dfa8        0x8 build-MT7687Lite/mods/modutime.o
                0x000000001009dfa8                mp_module_utime
 .rodata.time_localtime_obj
                0x000000001009dfb0        0xc build-MT7687Lite/mods/modutime.o
                0x000000001009dfb0                time_localtime_obj
 .rodata.time_mktime.str1.1
                0x000000001009dfbc       0x1d build-MT7687Lite/mods/modutime.o
 *fill*         0x000000001009dfd9        0x3 
 .rodata.time_mktime_obj
                0x000000001009dfdc        0x8 build-MT7687Lite/mods/modutime.o
                0x000000001009dfdc                time_mktime_obj
 .rodata.time_module_globals
                0x000000001009dfe4       0x10 build-MT7687Lite/mods/modutime.o
 .rodata.time_module_globals_table
                0x000000001009dff4       0x60 build-MT7687Lite/mods/modutime.o
 .rodata.time_sleep_obj
                0x000000001009e054        0x8 build-MT7687Lite/mods/modutime.o
                0x000000001009e054                time_sleep_obj
 .rodata.time_time_obj
                0x000000001009e05c        0x8 build-MT7687Lite/mods/modutime.o
                0x000000001009e05c                time_time_obj
 .rodata.mp_module_binascii_globals
                0x000000001009e064       0x10 build-MT7687Lite/mods/modubinascii.o
 .rodata.mp_module_binascii_globals_table
                0x000000001009e074       0x28 build-MT7687Lite/mods/modubinascii.o
 .rodata.mp_module_ubinascii
                0x000000001009e09c        0x8 build-MT7687Lite/mods/modubinascii.o
                0x000000001009e09c                mp_module_ubinascii
 .rodata.pyb_uart_any_obj
                0x000000001009e0a4        0x8 build-MT7687Lite/mods/pybuart.o
 .rodata.pyb_uart_deinit_obj
                0x000000001009e0ac        0x8 build-MT7687Lite/mods/pybuart.o
 .rodata.pyb_uart_init_args
                0x000000001009e0b4       0x28 build-MT7687Lite/mods/pybuart.o
 .rodata.pyb_uart_init_obj
                0x000000001009e0dc        0xc build-MT7687Lite/mods/pybuart.o
 .rodata.pyb_uart_irq_obj
                0x000000001009e0e8        0xc build-MT7687Lite/mods/pybuart.o
 .rodata.pyb_uart_locals_dict
                0x000000001009e0f4       0x10 build-MT7687Lite/mods/pybuart.o
 .rodata.pyb_uart_locals_dict_table
                0x000000001009e104       0x50 build-MT7687Lite/mods/pybuart.o
 .rodata.pyb_uart_print.str1.1
                0x000000001009e154       0x4f build-MT7687Lite/mods/pybuart.o
                                         0x57 (size before relaxing)
 *fill*         0x000000001009e1a3        0x1 
 .rodata.pyb_uart_sendbreak_obj
                0x000000001009e1a4        0x8 build-MT7687Lite/mods/pybuart.o
 .rodata.pyb_uart_type
                0x000000001009e1ac       0x3c build-MT7687Lite/mods/pybuart.o
                0x000000001009e1ac                pyb_uart_type
 .rodata.uart_irq_methods
                0x000000001009e1e8       0x10 build-MT7687Lite/mods/pybuart.o
 .rodata.uart_stream_p
                0x000000001009e1f8       0x10 build-MT7687Lite/mods/pybuart.o
 .rodata.pyb_flash_ioctl_obj
                0x000000001009e208        0x8 build-MT7687Lite/mods/pybflash.o
 .rodata.pyb_flash_locals_dict
                0x000000001009e210       0x10 build-MT7687Lite/mods/pybflash.o
 .rodata.pyb_flash_locals_dict_table
                0x000000001009e220       0x18 build-MT7687Lite/mods/pybflash.o
 .rodata.pyb_flash_obj
                0x000000001009e238        0x4 build-MT7687Lite/mods/pybflash.o
 .rodata.pyb_flash_readblocks_obj
                0x000000001009e23c        0x8 build-MT7687Lite/mods/pybflash.o
 .rodata.pyb_flash_type
                0x000000001009e244       0x3c build-MT7687Lite/mods/pybflash.o
                0x000000001009e244                pyb_flash_type
 .rodata.pyb_flash_writeblocks_obj
                0x000000001009e280        0x8 build-MT7687Lite/mods/pybflash.o
 .rodata.pin_find_by_name.str1.1
                0x000000001009e288       0x1a build-MT7687Lite/mods/pybpin.o
 *fill*         0x000000001009e2a2        0x2 
 .rodata.pin_high_obj
                0x000000001009e2a4        0x8 build-MT7687Lite/mods/pybpin.o
 .rodata.pin_init_args
                0x000000001009e2ac       0x38 build-MT7687Lite/mods/pybpin.o
 .rodata.pin_locals_dict
                0x000000001009e2e4       0x10 build-MT7687Lite/mods/pybpin.o
 .rodata.pin_locals_dict_table
                0x000000001009e2f4       0x30 build-MT7687Lite/mods/pybpin.o
 .rodata.pin_low_obj
                0x000000001009e324        0x8 build-MT7687Lite/mods/pybpin.o
 .rodata.pin_print.str1.1
                0x000000001009e32c       0x27 build-MT7687Lite/mods/pybpin.o
 *fill*         0x000000001009e353        0x1 
 .rodata.pin_toggle_obj
                0x000000001009e354        0x8 build-MT7687Lite/mods/pybpin.o
 .rodata.pin_value_obj
                0x000000001009e35c        0xc build-MT7687Lite/mods/pybpin.o
 .rodata.pyb_pin_type
                0x000000001009e368       0x3c build-MT7687Lite/mods/pybpin.o
                0x000000001009e368                pyb_pin_type
 .rodata.GPT_Handler.str1.1
                0x000000001009e3a4       0x33 build-MT7687Lite/mods/pybtimer.o
 *fill*         0x000000001009e3d7        0x1 
 .rodata.pyb_timer_init_args
                0x000000001009e3d8       0x30 build-MT7687Lite/mods/pybtimer.o
 .rodata.pyb_timer_locals_dict
                0x000000001009e408       0x10 build-MT7687Lite/mods/pybtimer.o
 .rodata.pyb_timer_locals_dict_table
                0x000000001009e418       0x28 build-MT7687Lite/mods/pybtimer.o
 .rodata.pyb_timer_make_new.str1.1
                0x000000001009e440       0x1a build-MT7687Lite/mods/pybtimer.o
 .rodata.pyb_timer_period_obj
                0x000000001009e440        0xc build-MT7687Lite/mods/pybtimer.o
 .rodata.pyb_timer_print.str1.1
                0x000000001009e44c       0x33 build-MT7687Lite/mods/pybtimer.o
                                         0x39 (size before relaxing)
 *fill*         0x000000001009e47f        0x1 
 .rodata.pyb_timer_start_obj
                0x000000001009e480        0x8 build-MT7687Lite/mods/pybtimer.o
 .rodata.pyb_timer_stop_obj
                0x000000001009e488        0x8 build-MT7687Lite/mods/pybtimer.o
 .rodata.pyb_timer_type
                0x000000001009e490       0x3c build-MT7687Lite/mods/pybtimer.o
                0x000000001009e490                pyb_timer_type
 .rodata.pyb_pwm_duty_obj
                0x000000001009e4cc        0xc build-MT7687Lite/mods/pybpwm.o
 .rodata.pyb_pwm_frequency_obj
                0x000000001009e4d8        0xc build-MT7687Lite/mods/pybpwm.o
 .rodata.pyb_pwm_gstart_obj
                0x000000001009e4e4        0x8 build-MT7687Lite/mods/pybpwm.o
 .rodata.pyb_pwm_gstop_obj
                0x000000001009e4ec        0x8 build-MT7687Lite/mods/pybpwm.o
 .rodata.pyb_pwm_init_args
                0x000000001009e4f4       0x20 build-MT7687Lite/mods/pybpwm.o
 .rodata.pyb_pwm_locals_dict
                0x000000001009e514       0x10 build-MT7687Lite/mods/pybpwm.o
 .rodata.pyb_pwm_locals_dict_table
                0x000000001009e524       0x48 build-MT7687Lite/mods/pybpwm.o
 .rodata.pyb_pwm_make_new.str1.1
                0x000000001009e56c       0x1a build-MT7687Lite/mods/pybpwm.o
 .rodata.pyb_pwm_print.str1.1
                0x000000001009e56c       0x35 build-MT7687Lite/mods/pybpwm.o
                                         0x40 (size before relaxing)
 *fill*         0x000000001009e5a1        0x3 
 .rodata.pyb_pwm_start_obj
                0x000000001009e5a4        0x8 build-MT7687Lite/mods/pybpwm.o
 .rodata.pyb_pwm_stop_obj
                0x000000001009e5ac        0x8 build-MT7687Lite/mods/pybpwm.o
 .rodata.pyb_pwm_type
                0x000000001009e5b4       0x3c build-MT7687Lite/mods/pybpwm.o
                0x000000001009e5b4                pyb_pwm_type
 .rodata.__assert_func.str1.1
                0x000000001009e5f0       0x28 build-MT7687Lite/misc/mperror.o
 .rodata.mpexception_value_invalid_arguments
                0x000000001009e618       0x1a build-MT7687Lite/misc/mperror.o
                0x000000001009e618                mpexception_value_invalid_arguments
 *fill*         0x000000001009e632        0x2 
 .rodata.machine_rng_get_obj
                0x000000001009e634        0x8 build-MT7687Lite/misc/random.o
                0x000000001009e634                machine_rng_get_obj
 .rodata.mp_irq_disable_obj
                0x000000001009e63c        0x8 build-MT7687Lite/misc/mpirq.o
 .rodata.mp_irq_enable_obj
                0x000000001009e644        0x8 build-MT7687Lite/misc/mpirq.o
 .rodata.mp_irq_flags_obj
                0x000000001009e64c        0x8 build-MT7687Lite/misc/mpirq.o
 .rodata.mp_irq_handler.str1.1
                0x000000001009e654       0x27 build-MT7687Lite/misc/mpirq.o
 *fill*         0x000000001009e67b        0x1 
 .rodata.mp_irq_init_args
                0x000000001009e67c       0x20 build-MT7687Lite/misc/mpirq.o
                0x000000001009e67c                mp_irq_init_args
 .rodata.mp_irq_init_obj
                0x000000001009e69c        0xc build-MT7687Lite/misc/mpirq.o
                0x000000001009e69c                mp_irq_init_obj
 .rodata.mp_irq_locals_dict
                0x000000001009e6a8       0x10 build-MT7687Lite/misc/mpirq.o
 .rodata.mp_irq_locals_dict_table
                0x000000001009e6b8       0x20 build-MT7687Lite/misc/mpirq.o
 .rodata.mp_irq_priorities
                0x000000001009e6d8        0x7 build-MT7687Lite/misc/mpirq.o
 *fill*         0x000000001009e6df        0x1 
 .rodata.mp_irq_type
                0x000000001009e6e0       0x3c build-MT7687Lite/misc/mpirq.o
                0x000000001009e6e0                mp_irq_type
 .rodata.ExCvt  0x000000001009e71c       0x80 build-MT7687Lite/lib/oofatfs/ff.o
 .rodata.LfnOfs
                0x000000001009e79c        0xd build-MT7687Lite/lib/oofatfs/ff.o
 *fill*         0x000000001009e7a9        0x1 
 .rodata.cst.7328
                0x000000001009e7aa        0xe build-MT7687Lite/lib/oofatfs/ff.o
 .rodata.cst32.7329
                0x000000001009e7b8        0xe build-MT7687Lite/lib/oofatfs/ff.o
 .rodata.f_mkfs.str1.1
                0x000000001009e7c6       0x34 build-MT7687Lite/lib/oofatfs/ff.o
 .rodata.follow_path.str1.1
                0x000000001009e7fa       0x10 build-MT7687Lite/lib/oofatfs/ff.o
 .rodata.Tbl    0x000000001009e80a      0x100 build-MT7687Lite/lib/oofatfs/option/unicode.o
 .rodata.cvt1.6554
                0x000000001009e90a      0x1f2 build-MT7687Lite/lib/oofatfs/option/unicode.o
 .rodata.cvt2.6555
                0x000000001009eafc       0xbc build-MT7687Lite/lib/oofatfs/option/unicode.o
 .rodata.mp_hal_move_cursor_back.str1.1
                0x000000001009ebb8        0xa build-MT7687Lite/lib/mp-readline/readline.o
 .rodata.readline_auto_indent.str1.1
                0x000000001009ebc2        0xa build-MT7687Lite/lib/mp-readline/readline.o
                                          0x5 (size before relaxing)
 .rodata.readline_process_char.str1.1
                0x000000001009ebc2        0x4 build-MT7687Lite/lib/mp-readline/readline.o
                                          0x7 (size before relaxing)
 .rodata.days_in_month.7808
                0x000000001009ebc6        0xc build-MT7687Lite/lib/timeutils/timeutils.o
 .rodata.days_since_jan1
                0x000000001009ebd2       0x1a build-MT7687Lite/lib/timeutils/timeutils.o
 .rodata.parse_compile_execute.str1.1
                0x000000001009ebec       0x56 build-MT7687Lite/lib/utils/pyexec.o
 .rodata.pyexec_friendly_repl.str1.1
                0x000000001009ec42       0xb5 build-MT7687Lite/lib/utils/pyexec.o
                                         0xbc (size before relaxing)
 .rodata.pyexec_raw_repl.str1.1
                0x000000001009ecf7       0x1e build-MT7687Lite/lib/utils/pyexec.o
                                         0x23 (size before relaxing)
 *fill*         0x000000001009ed15        0x3 
 .rodata.mp_sys_stderr_obj
                0x000000001009ed18        0x8 build-MT7687Lite/lib/utils/sys_stdio_mphal.o
                0x000000001009ed18                mp_sys_stderr_obj
 .rodata.mp_sys_stdin_obj
                0x000000001009ed20        0x8 build-MT7687Lite/lib/utils/sys_stdio_mphal.o
                0x000000001009ed20                mp_sys_stdin_obj
 .rodata.mp_sys_stdout_obj
                0x000000001009ed28        0x8 build-MT7687Lite/lib/utils/sys_stdio_mphal.o
                0x000000001009ed28                mp_sys_stdout_obj
 .rodata.stdio_locals_dict
                0x000000001009ed30       0x10 build-MT7687Lite/lib/utils/sys_stdio_mphal.o
 .rodata.stdio_locals_dict_table
                0x000000001009ed40       0x48 build-MT7687Lite/lib/utils/sys_stdio_mphal.o
 .rodata.stdio_obj___exit___obj
                0x000000001009ed88        0xc build-MT7687Lite/lib/utils/sys_stdio_mphal.o
 .rodata.stdio_obj_print.str1.1
                0x000000001009ed94        0xf build-MT7687Lite/lib/utils/sys_stdio_mphal.o
 *fill*         0x000000001009eda3        0x1 
 .rodata.stdio_obj_stream_p
                0x000000001009eda4       0x10 build-MT7687Lite/lib/utils/sys_stdio_mphal.o
 .rodata.stdio_obj_type
                0x000000001009edb4       0x3c build-MT7687Lite/lib/utils/sys_stdio_mphal.o
 .rodata.pins_locals_dict
                0x000000001009edf0       0x10 build-MT7687Lite/pins.o
                0x000000001009edf0                pins_locals_dict
 .rodata.pins_locals_dict_table
                0x000000001009ee00       0xe0 build-MT7687Lite/pins.o

.glue_7         0x000000001009eee0        0x0
 .glue_7        0x000000001009eee0        0x0 linker stubs

.glue_7t        0x000000001009eee0        0x0
 .glue_7t       0x000000001009eee0        0x0 linker stubs

.vfp11_veneer   0x000000001009eee0        0x0
 .vfp11_veneer  0x000000001009eee0        0x0 linker stubs

.v4_bx          0x000000001009eee0        0x0
 .v4_bx         0x000000001009eee0        0x0 linker stubs

.init           0x000000001009eee0        0xc
 .init          0x000000001009eee0        0xc /mnt/c/Ubuntu/gcc-arm-none/bin/../lib/gcc/arm-none-eabi/6.3.1/crti.o
                0x000000001009eee0                _init

.fini           0x000000001009eeec        0xc
 .fini          0x000000001009eeec        0xc /mnt/c/Ubuntu/gcc-arm-none/bin/../lib/gcc/arm-none-eabi/6.3.1/crti.o
                0x000000001009eeec                _fini

.iplt           0x000000001009eef8        0x0
 .iplt          0x000000001009eef8        0x0 /mnt/c/Ubuntu/gcc-arm-none/bin/../lib/gcc/arm-none-eabi/6.3.1/crtbegin.o
                0x000000001009eef8                . = ALIGN (0x4)
                0x000000001009eef8                __data_load__ = LOADADDR (.data)
                0x000000001009eef8                . = ALIGN (0x4)

.data           0x0000000020000000      0x6c4 load address 0x000000001009eef8
                0x0000000020000000                __data_start__ = .
 *(.isr_vector)
 .isr_vector    0x0000000020000000       0xc0 build-MT7687Lite/chip/Source/gcc/startup_MT7687.o
                0x0000000020000000                __isr_vector
 *(.data)
 *(.data*)
 .data.SystemCoreClock
                0x00000000200000c0        0x4 build-MT7687Lite/chip/Source/system_MT7687.o
                0x00000000200000c0                SystemCoreClock
 .data.SystemXTALClock
                0x00000000200000c4        0x4 build-MT7687Lite/chip/Source/system_MT7687.o
                0x00000000200000c4                SystemXTALClock
 .data.uxCriticalNesting
                0x00000000200000c8        0x4 build-MT7687Lite/rtos/Source/portable/ARM_CM4/port.o
 .data.pyb_uart_obj
                0x00000000200000cc       0x40 build-MT7687Lite/mods/pybuart.o
 .data.FLASH_Block_IndexPre
                0x000000002000010c        0x4 build-MT7687Lite/mods/pybflash.o
 .data.pyb_timer_obj
                0x0000000020000110       0x30 build-MT7687Lite/mods/pybtimer.o
 .data.pyb_pwm_obj
                0x0000000020000140      0x3c0 build-MT7687Lite/mods/pybpwm.o
 .data.pyexec_mode_kind
                0x0000000020000500        0x1 build-MT7687Lite/lib/utils/pyexec.o
                0x0000000020000500                pyexec_mode_kind
 *fill*         0x0000000020000501        0x3 
 .data.pin_GPIO0
                0x0000000020000504       0x10 build-MT7687Lite/pins.o
                0x0000000020000504                pin_GPIO0
 .data.pin_GPIO1
                0x0000000020000514       0x10 build-MT7687Lite/pins.o
                0x0000000020000514                pin_GPIO1
 .data.pin_GPIO2
                0x0000000020000524       0x10 build-MT7687Lite/pins.o
                0x0000000020000524                pin_GPIO2
 .data.pin_GPIO24
                0x0000000020000534       0x10 build-MT7687Lite/pins.o
                0x0000000020000534                pin_GPIO24
 .data.pin_GPIO25
                0x0000000020000544       0x10 build-MT7687Lite/pins.o
                0x0000000020000544                pin_GPIO25
 .data.pin_GPIO26
                0x0000000020000554       0x10 build-MT7687Lite/pins.o
                0x0000000020000554                pin_GPIO26
 .data.pin_GPIO27
                0x0000000020000564       0x10 build-MT7687Lite/pins.o
                0x0000000020000564                pin_GPIO27
 .data.pin_GPIO28
                0x0000000020000574       0x10 build-MT7687Lite/pins.o
                0x0000000020000574                pin_GPIO28
 .data.pin_GPIO29
                0x0000000020000584       0x10 build-MT7687Lite/pins.o
                0x0000000020000584                pin_GPIO29
 .data.pin_GPIO3
                0x0000000020000594       0x10 build-MT7687Lite/pins.o
                0x0000000020000594                pin_GPIO3
 .data.pin_GPIO30
                0x00000000200005a4       0x10 build-MT7687Lite/pins.o
                0x00000000200005a4                pin_GPIO30
 .data.pin_GPIO31
                0x00000000200005b4       0x10 build-MT7687Lite/pins.o
                0x00000000200005b4                pin_GPIO31
 .data.pin_GPIO32
                0x00000000200005c4       0x10 build-MT7687Lite/pins.o
                0x00000000200005c4                pin_GPIO32
 .data.pin_GPIO33
                0x00000000200005d4       0x10 build-MT7687Lite/pins.o
                0x00000000200005d4                pin_GPIO33
 .data.pin_GPIO34
                0x00000000200005e4       0x10 build-MT7687Lite/pins.o
                0x00000000200005e4                pin_GPIO34
 .data.pin_GPIO35
                0x00000000200005f4       0x10 build-MT7687Lite/pins.o
                0x00000000200005f4                pin_GPIO35
 .data.pin_GPIO36
                0x0000000020000604       0x10 build-MT7687Lite/pins.o
                0x0000000020000604                pin_GPIO36
 .data.pin_GPIO37
                0x0000000020000614       0x10 build-MT7687Lite/pins.o
                0x0000000020000614                pin_GPIO37
 .data.pin_GPIO38
                0x0000000020000624       0x10 build-MT7687Lite/pins.o
                0x0000000020000624                pin_GPIO38
 .data.pin_GPIO39
                0x0000000020000634       0x10 build-MT7687Lite/pins.o
                0x0000000020000634                pin_GPIO39
 .data.pin_GPIO4
                0x0000000020000644       0x10 build-MT7687Lite/pins.o
                0x0000000020000644                pin_GPIO4
 .data.pin_GPIO5
                0x0000000020000654       0x10 build-MT7687Lite/pins.o
                0x0000000020000654                pin_GPIO5
 .data.pin_GPIO57
                0x0000000020000664       0x10 build-MT7687Lite/pins.o
                0x0000000020000664                pin_GPIO57
 .data.pin_GPIO58
                0x0000000020000674       0x10 build-MT7687Lite/pins.o
                0x0000000020000674                pin_GPIO58
 .data.pin_GPIO59
                0x0000000020000684       0x10 build-MT7687Lite/pins.o
                0x0000000020000684                pin_GPIO59
 .data.pin_GPIO6
                0x0000000020000694       0x10 build-MT7687Lite/pins.o
                0x0000000020000694                pin_GPIO6
 .data.pin_GPIO60
                0x00000000200006a4       0x10 build-MT7687Lite/pins.o
                0x00000000200006a4                pin_GPIO60
 .data.pin_GPIO7
                0x00000000200006b4       0x10 build-MT7687Lite/pins.o
                0x00000000200006b4                pin_GPIO7
                0x00000000200006c4                . = ALIGN (0x4)
                0x00000000200006c4                __data_end__ = .

.igot.plt       0x00000000200006c4        0x0 load address 0x000000001009f5bc
 .igot.plt      0x00000000200006c4        0x0 /mnt/c/Ubuntu/gcc-arm-none/bin/../lib/gcc/arm-none-eabi/6.3.1/crtbegin.o
                0x00000000200006c4                . = ALIGN (0x4)
                0x000000001009f5bc                __tcmtext_load__ = LOADADDR (.tcmTEXT)
                0x00000000200006c4                . = ALIGN (0x4)

.tcmTEXT        0x0000000000100100      0x1ac load address 0x000000001009f5bc
                0x0000000000100100                __tcmtext_start__ = .
 *(.tcmTEXT)
 .tcmTEXT       0x0000000000100100      0x1ac build-MT7687Lite/chip/Source/MT7687_Flash.o
                0x0000000000100100                FLASH_PageWrite
                0x00000000001002ac                . = ALIGN (0x4)
                0x00000000001002ac                __tcmtext_end__ = .

.rel.dyn        0x00000000001002ac        0x0 load address 0x000000001009f768
 .rel.iplt      0x00000000001002ac        0x0 /mnt/c/Ubuntu/gcc-arm-none/bin/../lib/gcc/arm-none-eabi/6.3.1/crtbegin.o
                0x00000000001002ac                . = ALIGN (0x4)

.bss            0x00000000200006c4     0x98f0
                0x00000000200006c4                __bss_start__ = .
 *(.bss)
 *(.bss*)
 .bss.mp_state_ctx
                0x00000000200006c4      0x2f8 build-MT7687Lite/py/mpstate.o
                0x00000000200006c4                mp_state_ctx
 .bss.thread_stack_size
                0x00000000200009bc        0x4 build-MT7687Lite/py/modthread.o
 .bss._vfs_fat  0x00000000200009c0      0x278 build-MT7687Lite/main.o
                0x00000000200009c0                _vfs_fat
 .bss.mpTaskStack
                0x0000000020000c38     0x4000 build-MT7687Lite/main.o
                0x0000000020000c38                mpTaskStack
 .bss.mpTaskTCB
                0x0000000020004c38       0x50 build-MT7687Lite/main.o
                0x0000000020004c38                mpTaskTCB
 .bss.uxIdleTaskStack
                0x0000000020004c88      0x120 build-MT7687Lite/main.o
 .bss.xIdleTaskTCB
                0x0000000020004da8       0x50 build-MT7687Lite/main.o
 .bss.ext_thread_entry
                0x0000000020004df8        0x4 build-MT7687Lite/mpthreadport.o
 .bss.thread    0x0000000020004dfc        0x4 build-MT7687Lite/mpthreadport.o
 .bss.thread_entry0
                0x0000000020004e00       0x18 build-MT7687Lite/mpthreadport.o
 .bss.thread_mutex
                0x0000000020004e18       0x4c build-MT7687Lite/mpthreadport.o
 .bss.pxCurrentTCB
                0x0000000020004e64        0x4 build-MT7687Lite/rtos/Source/tasks.o
                0x0000000020004e64                pxCurrentTCB
 .bss.pxDelayedTaskList
                0x0000000020004e68        0x4 build-MT7687Lite/rtos/Source/tasks.o
 .bss.pxOverflowDelayedTaskList
                0x0000000020004e6c        0x4 build-MT7687Lite/rtos/Source/tasks.o
 .bss.pxReadyTasksLists
                0x0000000020004e70       0x50 build-MT7687Lite/rtos/Source/tasks.o
 .bss.uxCurrentNumberOfTasks
                0x0000000020004ec0        0x4 build-MT7687Lite/rtos/Source/tasks.o
 .bss.uxDeletedTasksWaitingCleanUp
                0x0000000020004ec4        0x4 build-MT7687Lite/rtos/Source/tasks.o
 .bss.uxPendedTicks
                0x0000000020004ec8        0x4 build-MT7687Lite/rtos/Source/tasks.o
 .bss.uxSchedulerSuspended
                0x0000000020004ecc        0x4 build-MT7687Lite/rtos/Source/tasks.o
 .bss.uxTaskNumber
                0x0000000020004ed0        0x4 build-MT7687Lite/rtos/Source/tasks.o
 .bss.uxTopReadyPriority
                0x0000000020004ed4        0x4 build-MT7687Lite/rtos/Source/tasks.o
 .bss.xDelayedTaskList1
                0x0000000020004ed8       0x14 build-MT7687Lite/rtos/Source/tasks.o
 .bss.xDelayedTaskList2
                0x0000000020004eec       0x14 build-MT7687Lite/rtos/Source/tasks.o
 .bss.xNextTaskUnblockTime
                0x0000000020004f00        0x4 build-MT7687Lite/rtos/Source/tasks.o
 .bss.xNumOfOverflows
                0x0000000020004f04        0x4 build-MT7687Lite/rtos/Source/tasks.o
 .bss.xPendingReadyList
                0x0000000020004f08       0x14 build-MT7687Lite/rtos/Source/tasks.o
 .bss.xSchedulerRunning
                0x0000000020004f1c        0x4 build-MT7687Lite/rtos/Source/tasks.o
 .bss.xTasksWaitingTermination
                0x0000000020004f20       0x14 build-MT7687Lite/rtos/Source/tasks.o
 .bss.xTickCount
                0x0000000020004f34        0x4 build-MT7687Lite/rtos/Source/tasks.o
 .bss.xYieldPending
                0x0000000020004f38        0x4 build-MT7687Lite/rtos/Source/tasks.o
 .bss.pxEnd     0x0000000020004f3c        0x4 build-MT7687Lite/rtos/Source/portable/MemMang/heap_4.o
 .bss.ucHeap    0x0000000020004f40     0x4000 build-MT7687Lite/rtos/Source/portable/MemMang/heap_4.o
 .bss.xBlockAllocatedBit
                0x0000000020008f40        0x4 build-MT7687Lite/rtos/Source/portable/MemMang/heap_4.o
 .bss.xFreeBytesRemaining
                0x0000000020008f44        0x4 build-MT7687Lite/rtos/Source/portable/MemMang/heap_4.o
 .bss.xMinimumEverFreeBytesRemaining
                0x0000000020008f48        0x4 build-MT7687Lite/rtos/Source/portable/MemMang/heap_4.o
 .bss.xStart    0x0000000020008f4c        0x8 build-MT7687Lite/rtos/Source/portable/MemMang/heap_4.o
 .bss.os_term_dup_obj
                0x0000000020008f54       0x1c build-MT7687Lite/mods/moduos.o
 .bss.FLASH_Block_Cache
                0x0000000020008f70     0x1000 build-MT7687Lite/mods/pybflash.o
 .bss.FLASH_Block_Index
                0x0000000020009f70        0x4 build-MT7687Lite/mods/pybflash.o
 .bss.FLASH_Cache_Dirty
                0x0000000020009f74        0x4 build-MT7687Lite/mods/pybflash.o
 .bss.mperror_heart_beat
                0x0000000020009f78        0xc build-MT7687Lite/misc/mperror.o
                0x0000000020009f78                mperror_heart_beat
 .bss.s_seed    0x0000000020009f84        0x4 build-MT7687Lite/misc/random.o
 .bss.Fsid      0x0000000020009f88        0x2 build-MT7687Lite/lib/oofatfs/ff.o
 *fill*         0x0000000020009f8a        0x2 
 .bss.rl        0x0000000020009f8c       0x1c build-MT7687Lite/lib/mp-readline/readline.o
 .bss.pyexec_system_exit
                0x0000000020009fa8        0x4 build-MT7687Lite/lib/utils/pyexec.o
                0x0000000020009fa8                pyexec_system_exit
 .bss.repl_display_debugging_info
                0x0000000020009fac        0x1 build-MT7687Lite/lib/utils/pyexec.o
 *fill*         0x0000000020009fad        0x3 
 .bss.mp_interrupt_char
                0x0000000020009fb0        0x4 build-MT7687Lite/lib/utils/interrupt_char.o
                0x0000000020009fb0                mp_interrupt_char
 *(COMMON)
                0x0000000020009fb4                . = ALIGN (0x4)
                0x0000000020009fb4                __bss_end__ = .
                0x0000000020009fb4                . = ALIGN (0x4)

.heap           0x0000000020009fb8    0x20000
                0x0000000020009fb8                __heap_start__ = .
 *(.heap)
 .heap          0x0000000020009fb8    0x20000 build-MT7687Lite/chip/Source/gcc/startup_MT7687.o
                0x0000000020009fb8                __HeapBase
                0x0000000020029fb8                __heap_end__ = .
                0x0000000020029fb8                __HeapLimit = .

.stack_dummy    0x0000000020009fb8    0x10000
                0x0000000020009fb8                __stack_start__ = .
 *(.stack)
 .stack         0x0000000020009fb8    0x10000 build-MT7687Lite/chip/Source/gcc/startup_MT7687.o
                0x0000000020019fb8                __stack_end__ = .
                0x000000002003fc00                __StackTop = (ORIGIN (SYSRAM) + LENGTH (SYSRAM))
                0x000000002002fc00                __StackLimit = (__StackTop - SIZEOF (.stack_dummy))
                0x0000000000000001                ASSERT ((__StackLimit >= __HeapLimit), region RAM overflowed with stack)
OUTPUT(build-MT7687Lite/firmware.elf elf32-littlearm)

.ARM.attributes
                0x0000000000000000       0x2f
 .ARM.attributes
                0x0000000000000000       0x16 /mnt/c/Ubuntu/gcc-arm-none/bin/../lib/gcc/arm-none-eabi/6.3.1/crti.o
 .ARM.attributes
                0x0000000000000016       0x31 build-MT7687Lite/py/mpstate.o
 .ARM.attributes
                0x0000000000000047       0x31 build-MT7687Lite/py/nlr.o
 .ARM.attributes
                0x0000000000000078       0x31 build-MT7687Lite/py/nlrthumb.o
 .ARM.attributes
                0x00000000000000a9       0x31 build-MT7687Lite/py/malloc.o
 .ARM.attributes
                0x00000000000000da       0x31 build-MT7687Lite/py/gc.o
 .ARM.attributes
                0x000000000000010b       0x31 build-MT7687Lite/py/qstr.o
 .ARM.attributes
                0x000000000000013c       0x31 build-MT7687Lite/py/vstr.o
 .ARM.attributes
                0x000000000000016d       0x31 build-MT7687Lite/py/mpprint.o
 .ARM.attributes
                0x000000000000019e       0x31 build-MT7687Lite/py/unicode.o
 .ARM.attributes
                0x00000000000001cf       0x31 build-MT7687Lite/py/mpz.o
 .ARM.attributes
                0x0000000000000200       0x31 build-MT7687Lite/py/reader.o
 .ARM.attributes
                0x0000000000000231       0x31 build-MT7687Lite/py/lexer.o
 .ARM.attributes
                0x0000000000000262       0x31 build-MT7687Lite/py/parse.o
 .ARM.attributes
                0x0000000000000293       0x31 build-MT7687Lite/py/scope.o
 .ARM.attributes
                0x00000000000002c4       0x31 build-MT7687Lite/py/compile.o
 .ARM.attributes
                0x00000000000002f5       0x31 build-MT7687Lite/py/emitcommon.o
 .ARM.attributes
                0x0000000000000326       0x31 build-MT7687Lite/py/emitbc.o
 .ARM.attributes
                0x0000000000000357       0x31 build-MT7687Lite/py/parsenumbase.o
 .ARM.attributes
                0x0000000000000388       0x31 build-MT7687Lite/py/parsenum.o
 .ARM.attributes
                0x00000000000003b9       0x31 build-MT7687Lite/py/emitglue.o
 .ARM.attributes
                0x00000000000003ea       0x31 build-MT7687Lite/py/persistentcode.o
 .ARM.attributes
                0x000000000000041b       0x31 build-MT7687Lite/py/runtime.o
 .ARM.attributes
                0x000000000000044c       0x31 build-MT7687Lite/py/runtime_utils.o
 .ARM.attributes
                0x000000000000047d       0x31 build-MT7687Lite/py/stackctrl.o
 .ARM.attributes
                0x00000000000004ae       0x31 build-MT7687Lite/py/argcheck.o
 .ARM.attributes
                0x00000000000004df       0x31 build-MT7687Lite/py/map.o
 .ARM.attributes
                0x0000000000000510       0x31 build-MT7687Lite/py/obj.o
 .ARM.attributes
                0x0000000000000541       0x31 build-MT7687Lite/py/objarray.o
 .ARM.attributes
                0x0000000000000572       0x31 build-MT7687Lite/py/objattrtuple.o
 .ARM.attributes
                0x00000000000005a3       0x31 build-MT7687Lite/py/objbool.o
 .ARM.attributes
                0x00000000000005d4       0x31 build-MT7687Lite/py/objboundmeth.o
 .ARM.attributes
                0x0000000000000605       0x31 build-MT7687Lite/py/objcell.o
 .ARM.attributes
                0x0000000000000636       0x31 build-MT7687Lite/py/objclosure.o
 .ARM.attributes
                0x0000000000000667       0x31 build-MT7687Lite/py/objdict.o
 .ARM.attributes
                0x0000000000000698       0x31 build-MT7687Lite/py/objenumerate.o
 .ARM.attributes
                0x00000000000006c9       0x31 build-MT7687Lite/py/objexcept.o
 .ARM.attributes
                0x00000000000006fa       0x31 build-MT7687Lite/py/objfilter.o
 .ARM.attributes
                0x000000000000072b       0x31 build-MT7687Lite/py/objfun.o
 .ARM.attributes
                0x000000000000075c       0x31 build-MT7687Lite/py/objgenerator.o
 .ARM.attributes
                0x000000000000078d       0x31 build-MT7687Lite/py/objgetitemiter.o
 .ARM.attributes
                0x00000000000007be       0x31 build-MT7687Lite/py/objint.o
 .ARM.attributes
                0x00000000000007ef       0x31 build-MT7687Lite/py/objint_mpz.o
 .ARM.attributes
                0x0000000000000820       0x31 build-MT7687Lite/py/objlist.o
 .ARM.attributes
                0x0000000000000851       0x31 build-MT7687Lite/py/objmap.o
 .ARM.attributes
                0x0000000000000882       0x31 build-MT7687Lite/py/objmodule.o
 .ARM.attributes
                0x00000000000008b3       0x31 build-MT7687Lite/py/objobject.o
 .ARM.attributes
                0x00000000000008e4       0x31 build-MT7687Lite/py/objpolyiter.o
 .ARM.attributes
                0x0000000000000915       0x31 build-MT7687Lite/py/objproperty.o
 .ARM.attributes
                0x0000000000000946       0x31 build-MT7687Lite/py/objnone.o
 .ARM.attributes
                0x0000000000000977       0x31 build-MT7687Lite/py/objnamedtuple.o
 .ARM.attributes
                0x00000000000009a8       0x31 build-MT7687Lite/py/objrange.o
 .ARM.attributes
                0x00000000000009d9       0x31 build-MT7687Lite/py/objreversed.o
 .ARM.attributes
                0x0000000000000a0a       0x31 build-MT7687Lite/py/objset.o
 .ARM.attributes
                0x0000000000000a3b       0x31 build-MT7687Lite/py/objsingleton.o
 .ARM.attributes
                0x0000000000000a6c       0x31 build-MT7687Lite/py/objslice.o
 .ARM.attributes
                0x0000000000000a9d       0x31 build-MT7687Lite/py/objstr.o
 .ARM.attributes
                0x0000000000000ace       0x31 build-MT7687Lite/py/objstrunicode.o
 .ARM.attributes
                0x0000000000000aff       0x31 build-MT7687Lite/py/objstringio.o
 .ARM.attributes
                0x0000000000000b30       0x31 build-MT7687Lite/py/objtuple.o
 .ARM.attributes
                0x0000000000000b61       0x31 build-MT7687Lite/py/objtype.o
 .ARM.attributes
                0x0000000000000b92       0x31 build-MT7687Lite/py/objzip.o
 .ARM.attributes
                0x0000000000000bc3       0x31 build-MT7687Lite/py/opmethods.o
 .ARM.attributes
                0x0000000000000bf4       0x31 build-MT7687Lite/py/sequence.o
 .ARM.attributes
                0x0000000000000c25       0x31 build-MT7687Lite/py/stream.o
 .ARM.attributes
                0x0000000000000c56       0x31 build-MT7687Lite/py/binary.o
 .ARM.attributes
                0x0000000000000c87       0x31 build-MT7687Lite/py/builtinimport.o
 .ARM.attributes
                0x0000000000000cb8       0x31 build-MT7687Lite/py/builtinevex.o
 .ARM.attributes
                0x0000000000000ce9       0x31 build-MT7687Lite/py/builtinhelp.o
 .ARM.attributes
                0x0000000000000d1a       0x31 build-MT7687Lite/py/modarray.o
 .ARM.attributes
                0x0000000000000d4b       0x31 build-MT7687Lite/py/modbuiltins.o
 .ARM.attributes
                0x0000000000000d7c       0x31 build-MT7687Lite/py/modcollections.o
 .ARM.attributes
                0x0000000000000dad       0x31 build-MT7687Lite/py/modgc.o
 .ARM.attributes
                0x0000000000000dde       0x31 build-MT7687Lite/py/modio.o
 .ARM.attributes
                0x0000000000000e0f       0x31 build-MT7687Lite/py/modmicropython.o
 .ARM.attributes
                0x0000000000000e40       0x31 build-MT7687Lite/py/modstruct.o
 .ARM.attributes
                0x0000000000000e71       0x31 build-MT7687Lite/py/modsys.o
 .ARM.attributes
                0x0000000000000ea2       0x31 build-MT7687Lite/py/moduerrno.o
 .ARM.attributes
                0x0000000000000ed3       0x31 build-MT7687Lite/py/modthread.o
 .ARM.attributes
                0x0000000000000f04       0x31 build-MT7687Lite/py/vm.o
 .ARM.attributes
                0x0000000000000f35       0x31 build-MT7687Lite/py/bc.o
 .ARM.attributes
                0x0000000000000f66       0x31 build-MT7687Lite/py/repl.o
 .ARM.attributes
                0x0000000000000f97       0x31 build-MT7687Lite/py/smallint.o
 .ARM.attributes
                0x0000000000000fc8       0x31 build-MT7687Lite/extmod/modujson.o
 .ARM.attributes
                0x0000000000000ff9       0x31 build-MT7687Lite/extmod/modure.o
 .ARM.attributes
                0x000000000000102a       0x31 build-MT7687Lite/extmod/modubinascii.o
 .ARM.attributes
                0x000000000000105b       0x31 build-MT7687Lite/extmod/moduselect.o
 .ARM.attributes
                0x000000000000108c       0x31 build-MT7687Lite/extmod/vfs.o
 .ARM.attributes
                0x00000000000010bd       0x31 build-MT7687Lite/extmod/vfs_reader.o
 .ARM.attributes
                0x00000000000010ee       0x31 build-MT7687Lite/extmod/vfs_fat.o
 .ARM.attributes
                0x000000000000111f       0x31 build-MT7687Lite/extmod/vfs_fat_diskio.o
 .ARM.attributes
                0x0000000000001150       0x31 build-MT7687Lite/extmod/vfs_fat_file.o
 .ARM.attributes
                0x0000000000001181       0x31 build-MT7687Lite/extmod/utime_mphal.o
 .ARM.attributes
                0x00000000000011b2       0x31 build-MT7687Lite/lib/utils/printf.o
 .ARM.attributes
                0x00000000000011e3       0x31 build-MT7687Lite/main.o
 .ARM.attributes
                0x0000000000001214       0x31 build-MT7687Lite/mphalport.o
 .ARM.attributes
                0x0000000000001245       0x31 build-MT7687Lite/mpthreadport.o
 .ARM.attributes
                0x0000000000001276       0x31 build-MT7687Lite/fatfs_port.o
 .ARM.attributes
                0x00000000000012a7       0x31 build-MT7687Lite/chip/Source/system_MT7687.o
 .ARM.attributes
                0x00000000000012d8       0x31 build-MT7687Lite/chip/Source/MT7687_GPIO.o
 .ARM.attributes
                0x0000000000001309       0x31 build-MT7687Lite/chip/Source/MT7687_UART.o
 .ARM.attributes
                0x000000000000133a       0x31 build-MT7687Lite/chip/Source/MT7687_TIMR.o
 .ARM.attributes
                0x000000000000136b       0x31 build-MT7687Lite/chip/Source/MT7687_PWM.o
 .ARM.attributes
                0x000000000000139c       0x31 build-MT7687Lite/chip/Source/MT7687_Flash.o
 .ARM.attributes
                0x00000000000013cd       0x1b build-MT7687Lite/chip/Source/gcc/startup_MT7687.o
 .ARM.attributes
                0x00000000000013e8       0x31 build-MT7687Lite/rtos/Source/list.o
 .ARM.attributes
                0x0000000000001419       0x31 build-MT7687Lite/rtos/Source/queue.o
 .ARM.attributes
                0x000000000000144a       0x31 build-MT7687Lite/rtos/Source/tasks.o
 .ARM.attributes
                0x000000000000147b       0x31 build-MT7687Lite/rtos/Source/portable/ARM_CM4/port.o
 .ARM.attributes
                0x00000000000014ac       0x31 build-MT7687Lite/rtos/Source/portable/MemMang/heap_4.o
 .ARM.attributes
                0x00000000000014dd       0x31 build-MT7687Lite/mods/moduos.o
 .ARM.attributes
                0x000000000000150e       0x31 build-MT7687Lite/mods/modmachine.o
 .ARM.attributes
                0x000000000000153f       0x31 build-MT7687Lite/mods/modutime.o
 .ARM.attributes
                0x0000000000001570       0x31 build-MT7687Lite/mods/modubinascii.o
 .ARM.attributes
                0x00000000000015a1       0x31 build-MT7687Lite/mods/pybuart.o
 .ARM.attributes
                0x00000000000015d2       0x31 build-MT7687Lite/mods/pybflash.o
 .ARM.attributes
                0x0000000000001603       0x31 build-MT7687Lite/mods/pybpin.o
 .ARM.attributes
                0x0000000000001634       0x31 build-MT7687Lite/mods/pybtimer.o
 .ARM.attributes
                0x0000000000001665       0x31 build-MT7687Lite/mods/pybpwm.o
 .ARM.attributes
                0x0000000000001696       0x31 build-MT7687Lite/misc/gccollect.o
 .ARM.attributes
                0x00000000000016c7       0x31 build-MT7687Lite/misc/mperror.o
 .ARM.attributes
                0x00000000000016f8       0x31 build-MT7687Lite/misc/random.o
 .ARM.attributes
                0x0000000000001729       0x31 build-MT7687Lite/misc/mpirq.o
 .ARM.attributes
                0x000000000000175a       0x21 build-MT7687Lite/misc/gchelper.o
 .ARM.attributes
                0x000000000000177b       0x31 build-MT7687Lite/lib/oofatfs/ff.o
 .ARM.attributes
                0x00000000000017ac       0x31 build-MT7687Lite/lib/oofatfs/option/unicode.o
 .ARM.attributes
                0x00000000000017dd       0x31 build-MT7687Lite/lib/libc/string0.o
 .ARM.attributes
                0x000000000000180e       0x31 build-MT7687Lite/lib/mp-readline/readline.o
 .ARM.attributes
                0x000000000000183f       0x31 build-MT7687Lite/lib/timeutils/timeutils.o
 .ARM.attributes
                0x0000000000001870       0x31 build-MT7687Lite/lib/utils/pyexec.o
 .ARM.attributes
                0x00000000000018a1       0x31 build-MT7687Lite/lib/utils/interrupt_char.o
 .ARM.attributes
                0x00000000000018d2       0x31 build-MT7687Lite/lib/utils/sys_stdio_mphal.o
 .ARM.attributes
                0x0000000000001903       0x31 build-MT7687Lite/pins.o

.comment        0x0000000000000000       0x7f
 .comment       0x0000000000000000       0x7f build-MT7687Lite/py/mpstate.o
                                         0x80 (size before relaxing)
 .comment       0x000000000000007f       0x80 build-MT7687Lite/py/nlr.o
 .comment       0x000000000000007f       0x80 build-MT7687Lite/py/nlrthumb.o
 .comment       0x000000000000007f       0x80 build-MT7687Lite/py/malloc.o
 .comment       0x000000000000007f       0x80 build-MT7687Lite/py/gc.o
 .comment       0x000000000000007f       0x80 build-MT7687Lite/py/qstr.o
 .comment       0x000000000000007f       0x80 build-MT7687Lite/py/vstr.o
 .comment       0x000000000000007f       0x80 build-MT7687Lite/py/mpprint.o
 .comment       0x000000000000007f       0x80 build-MT7687Lite/py/unicode.o
 .comment       0x000000000000007f       0x80 build-MT7687Lite/py/mpz.o
 .comment       0x000000000000007f       0x80 build-MT7687Lite/py/reader.o
 .comment       0x000000000000007f       0x80 build-MT7687Lite/py/lexer.o
 .comment       0x000000000000007f       0x80 build-MT7687Lite/py/parse.o
 .comment       0x000000000000007f       0x80 build-MT7687Lite/py/scope.o
 .comment       0x000000000000007f       0x80 build-MT7687Lite/py/compile.o
 .comment       0x000000000000007f       0x80 build-MT7687Lite/py/emitcommon.o
 .comment       0x000000000000007f       0x80 build-MT7687Lite/py/emitbc.o
 .comment       0x000000000000007f       0x80 build-MT7687Lite/py/parsenumbase.o
 .comment       0x000000000000007f       0x80 build-MT7687Lite/py/parsenum.o
 .comment       0x000000000000007f       0x80 build-MT7687Lite/py/emitglue.o
 .comment       0x000000000000007f       0x80 build-MT7687Lite/py/persistentcode.o
 .comment       0x000000000000007f       0x80 build-MT7687Lite/py/runtime.o
 .comment       0x000000000000007f       0x80 build-MT7687Lite/py/runtime_utils.o
 .comment       0x000000000000007f       0x80 build-MT7687Lite/py/stackctrl.o
 .comment       0x000000000000007f       0x80 build-MT7687Lite/py/argcheck.o
 .comment       0x000000000000007f       0x80 build-MT7687Lite/py/map.o
 .comment       0x000000000000007f       0x80 build-MT7687Lite/py/obj.o
 .comment       0x000000000000007f       0x80 build-MT7687Lite/py/objarray.o
 .comment       0x000000000000007f       0x80 build-MT7687Lite/py/objattrtuple.o
 .comment       0x000000000000007f       0x80 build-MT7687Lite/py/objbool.o
 .comment       0x000000000000007f       0x80 build-MT7687Lite/py/objboundmeth.o
 .comment       0x000000000000007f       0x80 build-MT7687Lite/py/objcell.o
 .comment       0x000000000000007f       0x80 build-MT7687Lite/py/objclosure.o
 .comment       0x000000000000007f       0x80 build-MT7687Lite/py/objdict.o
 .comment       0x000000000000007f       0x80 build-MT7687Lite/py/objenumerate.o
 .comment       0x000000000000007f       0x80 build-MT7687Lite/py/objexcept.o
 .comment       0x000000000000007f       0x80 build-MT7687Lite/py/objfilter.o
 .comment       0x000000000000007f       0x80 build-MT7687Lite/py/objfun.o
 .comment       0x000000000000007f       0x80 build-MT7687Lite/py/objgenerator.o
 .comment       0x000000000000007f       0x80 build-MT7687Lite/py/objgetitemiter.o
 .comment       0x000000000000007f       0x80 build-MT7687Lite/py/objint.o
 .comment       0x000000000000007f       0x80 build-MT7687Lite/py/objint_mpz.o
 .comment       0x000000000000007f       0x80 build-MT7687Lite/py/objlist.o
 .comment       0x000000000000007f       0x80 build-MT7687Lite/py/objmap.o
 .comment       0x000000000000007f       0x80 build-MT7687Lite/py/objmodule.o
 .comment       0x000000000000007f       0x80 build-MT7687Lite/py/objobject.o
 .comment       0x000000000000007f       0x80 build-MT7687Lite/py/objpolyiter.o
 .comment       0x000000000000007f       0x80 build-MT7687Lite/py/objproperty.o
 .comment       0x000000000000007f       0x80 build-MT7687Lite/py/objnone.o
 .comment       0x000000000000007f       0x80 build-MT7687Lite/py/objnamedtuple.o
 .comment       0x000000000000007f       0x80 build-MT7687Lite/py/objrange.o
 .comment       0x000000000000007f       0x80 build-MT7687Lite/py/objreversed.o
 .comment       0x000000000000007f       0x80 build-MT7687Lite/py/objset.o
 .comment       0x000000000000007f       0x80 build-MT7687Lite/py/objsingleton.o
 .comment       0x000000000000007f       0x80 build-MT7687Lite/py/objslice.o
 .comment       0x000000000000007f       0x80 build-MT7687Lite/py/objstr.o
 .comment       0x000000000000007f       0x80 build-MT7687Lite/py/objstrunicode.o
 .comment       0x000000000000007f       0x80 build-MT7687Lite/py/objstringio.o
 .comment       0x000000000000007f       0x80 build-MT7687Lite/py/objtuple.o
 .comment       0x000000000000007f       0x80 build-MT7687Lite/py/objtype.o
 .comment       0x000000000000007f       0x80 build-MT7687Lite/py/objzip.o
 .comment       0x000000000000007f       0x80 build-MT7687Lite/py/opmethods.o
 .comment       0x000000000000007f       0x80 build-MT7687Lite/py/sequence.o
 .comment       0x000000000000007f       0x80 build-MT7687Lite/py/stream.o
 .comment       0x000000000000007f       0x80 build-MT7687Lite/py/binary.o
 .comment       0x000000000000007f       0x80 build-MT7687Lite/py/builtinimport.o
 .comment       0x000000000000007f       0x80 build-MT7687Lite/py/builtinevex.o
 .comment       0x000000000000007f       0x80 build-MT7687Lite/py/builtinhelp.o
 .comment       0x000000000000007f       0x80 build-MT7687Lite/py/modarray.o
 .comment       0x000000000000007f       0x80 build-MT7687Lite/py/modbuiltins.o
 .comment       0x000000000000007f       0x80 build-MT7687Lite/py/modcollections.o
 .comment       0x000000000000007f       0x80 build-MT7687Lite/py/modgc.o
 .comment       0x000000000000007f       0x80 build-MT7687Lite/py/modio.o
 .comment       0x000000000000007f       0x80 build-MT7687Lite/py/modmicropython.o
 .comment       0x000000000000007f       0x80 build-MT7687Lite/py/modstruct.o
 .comment       0x000000000000007f       0x80 build-MT7687Lite/py/modsys.o
 .comment       0x000000000000007f       0x80 build-MT7687Lite/py/moduerrno.o
 .comment       0x000000000000007f       0x80 build-MT7687Lite/py/modthread.o
 .comment       0x000000000000007f       0x80 build-MT7687Lite/py/vm.o
 .comment       0x000000000000007f       0x80 build-MT7687Lite/py/bc.o
 .comment       0x000000000000007f       0x80 build-MT7687Lite/py/repl.o
 .comment       0x000000000000007f       0x80 build-MT7687Lite/py/smallint.o
 .comment       0x000000000000007f       0x80 build-MT7687Lite/extmod/modujson.o
 .comment       0x000000000000007f       0x80 build-MT7687Lite/extmod/modure.o
 .comment       0x000000000000007f       0x80 build-MT7687Lite/extmod/modubinascii.o
 .comment       0x000000000000007f       0x80 build-MT7687Lite/extmod/moduselect.o
 .comment       0x000000000000007f       0x80 build-MT7687Lite/extmod/vfs.o
 .comment       0x000000000000007f       0x80 build-MT7687Lite/extmod/vfs_reader.o
 .comment       0x000000000000007f       0x80 build-MT7687Lite/extmod/vfs_fat.o
 .comment       0x000000000000007f       0x80 build-MT7687Lite/extmod/vfs_fat_diskio.o
 .comment       0x000000000000007f       0x80 build-MT7687Lite/extmod/vfs_fat_file.o
 .comment       0x000000000000007f       0x80 build-MT7687Lite/extmod/utime_mphal.o
 .comment       0x000000000000007f       0x80 build-MT7687Lite/lib/utils/printf.o
 .comment       0x000000000000007f       0x80 build-MT7687Lite/main.o
 .comment       0x000000000000007f       0x80 build-MT7687Lite/mphalport.o
 .comment       0x000000000000007f       0x80 build-MT7687Lite/mpthreadport.o
 .comment       0x000000000000007f       0x80 build-MT7687Lite/fatfs_port.o
 .comment       0x000000000000007f       0x80 build-MT7687Lite/chip/Source/system_MT7687.o
 .comment       0x000000000000007f       0x80 build-MT7687Lite/chip/Source/MT7687_GPIO.o
 .comment       0x000000000000007f       0x80 build-MT7687Lite/chip/Source/MT7687_UART.o
 .comment       0x000000000000007f       0x80 build-MT7687Lite/chip/Source/MT7687_TIMR.o
 .comment       0x000000000000007f       0x80 build-MT7687Lite/chip/Source/MT7687_PWM.o
 .comment       0x000000000000007f       0x80 build-MT7687Lite/chip/Source/MT7687_Flash.o
 .comment       0x000000000000007f       0x80 build-MT7687Lite/rtos/Source/list.o
 .comment       0x000000000000007f       0x80 build-MT7687Lite/rtos/Source/queue.o
 .comment       0x000000000000007f       0x80 build-MT7687Lite/rtos/Source/tasks.o
 .comment       0x000000000000007f       0x80 build-MT7687Lite/rtos/Source/portable/ARM_CM4/port.o
 .comment       0x000000000000007f       0x80 build-MT7687Lite/rtos/Source/portable/MemMang/heap_4.o
 .comment       0x000000000000007f       0x80 build-MT7687Lite/mods/moduos.o
 .comment       0x000000000000007f       0x80 build-MT7687Lite/mods/modmachine.o
 .comment       0x000000000000007f       0x80 build-MT7687Lite/mods/modutime.o
 .comment       0x000000000000007f       0x80 build-MT7687Lite/mods/modubinascii.o
 .comment       0x000000000000007f       0x80 build-MT7687Lite/mods/pybuart.o
 .comment       0x000000000000007f       0x80 build-MT7687Lite/mods/pybflash.o
 .comment       0x000000000000007f       0x80 build-MT7687Lite/mods/pybpin.o
 .comment       0x000000000000007f       0x80 build-MT7687Lite/mods/pybtimer.o
 .comment       0x000000000000007f       0x80 build-MT7687Lite/mods/pybpwm.o
 .comment       0x000000000000007f       0x80 build-MT7687Lite/misc/gccollect.o
 .comment       0x000000000000007f       0x80 build-MT7687Lite/misc/mperror.o
 .comment       0x000000000000007f       0x80 build-MT7687Lite/misc/random.o
 .comment       0x000000000000007f       0x80 build-MT7687Lite/misc/mpirq.o
 .comment       0x000000000000007f       0x80 build-MT7687Lite/lib/oofatfs/ff.o
 .comment       0x000000000000007f       0x80 build-MT7687Lite/lib/oofatfs/option/unicode.o
 .comment       0x000000000000007f       0x80 build-MT7687Lite/lib/libc/string0.o
 .comment       0x000000000000007f       0x80 build-MT7687Lite/lib/mp-readline/readline.o
 .comment       0x000000000000007f       0x80 build-MT7687Lite/lib/timeutils/timeutils.o
 .comment       0x000000000000007f       0x80 build-MT7687Lite/lib/utils/pyexec.o
 .comment       0x000000000000007f       0x80 build-MT7687Lite/lib/utils/interrupt_char.o
 .comment       0x000000000000007f       0x80 build-MT7687Lite/lib/utils/sys_stdio_mphal.o
 .comment       0x000000000000007f       0x80 build-MT7687Lite/pins.o

.debug_info     0x0000000000000000   0x166e60
 .debug_info    0x0000000000000000     0x1cfb build-MT7687Lite/py/mpstate.o
 .debug_info    0x0000000000001cfb     0x1c5c build-MT7687Lite/py/nlr.o
 .debug_info    0x0000000000003957     0x1c7d build-MT7687Lite/py/nlrthumb.o
 .debug_info    0x00000000000055d4     0x1eb1 build-MT7687Lite/py/malloc.o
 .debug_info    0x0000000000007485     0x34b3 build-MT7687Lite/py/gc.o
 .debug_info    0x000000000000a938     0x2f4b build-MT7687Lite/py/qstr.o
 .debug_info    0x000000000000d883     0x26a6 build-MT7687Lite/py/vstr.o
 .debug_info    0x000000000000ff29     0x2859 build-MT7687Lite/py/mpprint.o
 .debug_info    0x0000000000012782      0xd16 build-MT7687Lite/py/unicode.o
 .debug_info    0x0000000000013498     0x2d1c build-MT7687Lite/py/mpz.o
 .debug_info    0x00000000000161b4     0x1dc0 build-MT7687Lite/py/reader.o
 .debug_info    0x0000000000017f74     0x319c build-MT7687Lite/py/lexer.o
 .debug_info    0x000000000001b110     0x5fd5 build-MT7687Lite/py/parse.o
 .debug_info    0x00000000000210e5     0x29f3 build-MT7687Lite/py/scope.o
 .debug_info    0x0000000000023ad8     0xa09d build-MT7687Lite/py/compile.o
 .debug_info    0x000000000002db75     0x234f build-MT7687Lite/py/emitcommon.o
 .debug_info    0x000000000002fec4     0x680c build-MT7687Lite/py/emitbc.o
 .debug_info    0x00000000000366d0      0xa24 build-MT7687Lite/py/parsenumbase.o
 .debug_info    0x00000000000370f4     0x2f4f build-MT7687Lite/py/parsenum.o
 .debug_info    0x000000000003a043     0x1f0a build-MT7687Lite/py/emitglue.o
 .debug_info    0x000000000003bf4d     0x26e6 build-MT7687Lite/py/persistentcode.o
 .debug_info    0x000000000003e633     0x6389 build-MT7687Lite/py/runtime.o
 .debug_info    0x00000000000449bc     0x1d94 build-MT7687Lite/py/runtime_utils.o
 .debug_info    0x0000000000046750     0x1c9e build-MT7687Lite/py/stackctrl.o
 .debug_info    0x00000000000483ee     0x2053 build-MT7687Lite/py/argcheck.o
 .debug_info    0x000000000004a441     0x258c build-MT7687Lite/py/map.o
 .debug_info    0x000000000004c9cd     0x3931 build-MT7687Lite/py/obj.o
 .debug_info    0x00000000000502fe     0x3fb3 build-MT7687Lite/py/objarray.o
 .debug_info    0x00000000000542b1     0x25ce build-MT7687Lite/py/objattrtuple.o
 .debug_info    0x000000000005687f     0x2c3e build-MT7687Lite/py/objbool.o
 .debug_info    0x00000000000594bd     0x2ba7 build-MT7687Lite/py/objboundmeth.o
 .debug_info    0x000000000005c064     0x2391 build-MT7687Lite/py/objcell.o
 .debug_info    0x000000000005e3f5     0x2bef build-MT7687Lite/py/objclosure.o
 .debug_info    0x0000000000060fe4     0x487e build-MT7687Lite/py/objdict.o
 .debug_info    0x0000000000065862     0x2d07 build-MT7687Lite/py/objenumerate.o
 .debug_info    0x0000000000068569     0x3b37 build-MT7687Lite/py/objexcept.o
 .debug_info    0x000000000006c0a0     0x2b15 build-MT7687Lite/py/objfilter.o
 .debug_info    0x000000000006ebb5     0x37c6 build-MT7687Lite/py/objfun.o
 .debug_info    0x000000000007237b     0x33f0 build-MT7687Lite/py/objgenerator.o
 .debug_info    0x000000000007576b     0x2b2a build-MT7687Lite/py/objgetitemiter.o
 .debug_info    0x0000000000078295     0x3720 build-MT7687Lite/py/objint.o
 .debug_info    0x000000000007b9b5     0x2bd2 build-MT7687Lite/py/objint_mpz.o
 .debug_info    0x000000000007e587     0x4026 build-MT7687Lite/py/objlist.o
 .debug_info    0x00000000000825ad     0x2b50 build-MT7687Lite/py/objmap.o
 .debug_info    0x00000000000850fd     0x32a1 build-MT7687Lite/py/objmodule.o
 .debug_info    0x000000000008839e     0x2bdd build-MT7687Lite/py/objobject.o
 .debug_info    0x000000000008af7b     0x29ce build-MT7687Lite/py/objpolyiter.o
 .debug_info    0x000000000008d949     0x2d5e build-MT7687Lite/py/objproperty.o
 .debug_info    0x00000000000906a7     0x2320 build-MT7687Lite/py/objnone.o
 .debug_info    0x00000000000929c7     0x258c build-MT7687Lite/py/objnamedtuple.o
 .debug_info    0x0000000000094f53     0x3068 build-MT7687Lite/py/objrange.o
 .debug_info    0x0000000000097fbb     0x2ba4 build-MT7687Lite/py/objreversed.o
 .debug_info    0x000000000009ab5f     0x4839 build-MT7687Lite/py/objset.o
 .debug_info    0x000000000009f398     0x2359 build-MT7687Lite/py/objsingleton.o
 .debug_info    0x00000000000a16f1     0x2554 build-MT7687Lite/py/objslice.o
 .debug_info    0x00000000000a3c45     0x745e build-MT7687Lite/py/objstr.o
 .debug_info    0x00000000000ab0a3     0x35e3 build-MT7687Lite/py/objstrunicode.o
 .debug_info    0x00000000000ae686     0x352a build-MT7687Lite/py/objstringio.o
 .debug_info    0x00000000000b1bb0     0x3792 build-MT7687Lite/py/objtuple.o
 .debug_info    0x00000000000b5342     0x4f6a build-MT7687Lite/py/objtype.o
 .debug_info    0x00000000000ba2ac     0x2b3e build-MT7687Lite/py/objzip.o
 .debug_info    0x00000000000bcdea     0x1cd0 build-MT7687Lite/py/opmethods.o
 .debug_info    0x00000000000beaba     0x2227 build-MT7687Lite/py/sequence.o
 .debug_info    0x00000000000c0ce1     0x31e3 build-MT7687Lite/py/stream.o
 .debug_info    0x00000000000c3ec4     0x2345 build-MT7687Lite/py/binary.o
 .debug_info    0x00000000000c6209     0x43b0 build-MT7687Lite/py/builtinimport.o
 .debug_info    0x00000000000ca5b9     0x3467 build-MT7687Lite/py/builtinevex.o
 .debug_info    0x00000000000cda20     0x1d51 build-MT7687Lite/py/builtinhelp.o
 .debug_info    0x00000000000cf771     0x2752 build-MT7687Lite/py/modarray.o
 .debug_info    0x00000000000d1ec3     0x4b52 build-MT7687Lite/py/modbuiltins.o
 .debug_info    0x00000000000d6a15     0x2752 build-MT7687Lite/py/modcollections.o
 .debug_info    0x00000000000d9167     0x2d5e build-MT7687Lite/py/modgc.o
 .debug_info    0x00000000000dbec5     0x2ea2 build-MT7687Lite/py/modio.o
 .debug_info    0x00000000000ded67     0x2f8f build-MT7687Lite/py/modmicropython.o
 .debug_info    0x00000000000e1cf6     0x3617 build-MT7687Lite/py/modstruct.o
 .debug_info    0x00000000000e530d     0x32df build-MT7687Lite/py/modsys.o
 .debug_info    0x00000000000e85ec     0x2370 build-MT7687Lite/py/moduerrno.o
 .debug_info    0x00000000000ea95c     0x34bf build-MT7687Lite/py/modthread.o
 .debug_info    0x00000000000ede1b     0x3dd3 build-MT7687Lite/py/vm.o
 .debug_info    0x00000000000f1bee     0x2388 build-MT7687Lite/py/bc.o
 .debug_info    0x00000000000f3f76     0x3242 build-MT7687Lite/py/repl.o
 .debug_info    0x00000000000f71b8      0xa2f build-MT7687Lite/py/smallint.o
 .debug_info    0x00000000000f7be7     0x351e build-MT7687Lite/extmod/modujson.o
 .debug_info    0x00000000000fb105     0x3e7f build-MT7687Lite/extmod/modure.o
 .debug_info    0x00000000000fef84     0x233c build-MT7687Lite/extmod/modubinascii.o
 .debug_info    0x00000000001012c0     0x3894 build-MT7687Lite/extmod/moduselect.o
 .debug_info    0x0000000000104b54     0x421e build-MT7687Lite/extmod/vfs.o
 .debug_info    0x0000000000108d72     0x212e build-MT7687Lite/extmod/vfs_reader.o
 .debug_info    0x000000000010aea0     0x4062 build-MT7687Lite/extmod/vfs_fat.o
 .debug_info    0x000000000010ef02     0x2424 build-MT7687Lite/extmod/vfs_fat_diskio.o
 .debug_info    0x0000000000111326     0x3929 build-MT7687Lite/extmod/vfs_fat_file.o
 .debug_info    0x0000000000114c4f     0x2045 build-MT7687Lite/extmod/utime_mphal.o
 .debug_info    0x0000000000116c94     0x18be build-MT7687Lite/lib/utils/printf.o
 .debug_info    0x0000000000118552     0x3a70 build-MT7687Lite/main.o
 .debug_info    0x000000000011bfc2     0x22b7 build-MT7687Lite/mphalport.o
 .debug_info    0x000000000011e279     0x232d build-MT7687Lite/mpthreadport.o
 .debug_info    0x00000000001205a6     0x1ee8 build-MT7687Lite/fatfs_port.o
 .debug_info    0x000000000012248e      0xc45 build-MT7687Lite/chip/Source/system_MT7687.o
 .debug_info    0x00000000001230d3      0xa4a build-MT7687Lite/chip/Source/MT7687_GPIO.o
 .debug_info    0x0000000000123b1d      0xa4f build-MT7687Lite/chip/Source/MT7687_UART.o
 .debug_info    0x000000000012456c      0xd7d build-MT7687Lite/chip/Source/MT7687_TIMR.o
 .debug_info    0x00000000001252e9      0xb29 build-MT7687Lite/chip/Source/MT7687_PWM.o
 .debug_info    0x0000000000125e12      0xb97 build-MT7687Lite/chip/Source/MT7687_Flash.o
 .debug_info    0x00000000001269a9      0xabe build-MT7687Lite/rtos/Source/list.o
 .debug_info    0x0000000000127467     0x1dc8 build-MT7687Lite/rtos/Source/queue.o
 .debug_info    0x000000000012922f     0x24ce build-MT7687Lite/rtos/Source/tasks.o
 .debug_info    0x000000000012b6fd      0x302 build-MT7687Lite/rtos/Source/portable/ARM_CM4/port.o
 .debug_info    0x000000000012b9ff      0xbe6 build-MT7687Lite/rtos/Source/portable/MemMang/heap_4.o
 .debug_info    0x000000000012c5e5     0x3110 build-MT7687Lite/mods/moduos.o
 .debug_info    0x000000000012f6f5     0x32fa build-MT7687Lite/mods/modmachine.o
 .debug_info    0x00000000001329ef     0x2eac build-MT7687Lite/mods/modutime.o
 .debug_info    0x000000000013589b     0x2ae3 build-MT7687Lite/mods/modubinascii.o
 .debug_info    0x000000000013837e     0x4426 build-MT7687Lite/mods/pybuart.o
 .debug_info    0x000000000013c7a4     0x3455 build-MT7687Lite/mods/pybflash.o
 .debug_info    0x000000000013fbf9     0x338d build-MT7687Lite/mods/pybpin.o
 .debug_info    0x0000000000142f86     0x37c0 build-MT7687Lite/mods/pybtimer.o
 .debug_info    0x0000000000146746     0x3544 build-MT7687Lite/mods/pybpwm.o
 .debug_info    0x0000000000149c8a     0x1d04 build-MT7687Lite/misc/gccollect.o
 .debug_info    0x000000000014b98e     0x1fc6 build-MT7687Lite/misc/mperror.o
 .debug_info    0x000000000014d954     0x17c7 build-MT7687Lite/misc/random.o
 .debug_info    0x000000000014f11b     0x3245 build-MT7687Lite/misc/mpirq.o
 .debug_info    0x0000000000152360     0x4fa8 build-MT7687Lite/lib/oofatfs/ff.o
 .debug_info    0x0000000000157308      0xac2 build-MT7687Lite/lib/oofatfs/option/unicode.o
 .debug_info    0x0000000000157dca      0xe76 build-MT7687Lite/lib/libc/string0.o
 .debug_info    0x0000000000158c40     0x24e5 build-MT7687Lite/lib/mp-readline/readline.o
 .debug_info    0x000000000015b125     0x1a3f build-MT7687Lite/lib/timeutils/timeutils.o
 .debug_info    0x000000000015cb64     0x3719 build-MT7687Lite/lib/utils/pyexec.o
 .debug_info    0x000000000016027d     0x1d50 build-MT7687Lite/lib/utils/interrupt_char.o
 .debug_info    0x0000000000161fcd     0x2832 build-MT7687Lite/lib/utils/sys_stdio_mphal.o
 .debug_info    0x00000000001647ff     0x2661 build-MT7687Lite/pins.o

.debug_abbrev   0x0000000000000000    0x1d9a2
 .debug_abbrev  0x0000000000000000      0x230 build-MT7687Lite/py/mpstate.o
 .debug_abbrev  0x0000000000000230      0x2a6 build-MT7687Lite/py/nlr.o
 .debug_abbrev  0x00000000000004d6      0x2d1 build-MT7687Lite/py/nlrthumb.o
 .debug_abbrev  0x00000000000007a7      0x357 build-MT7687Lite/py/malloc.o
 .debug_abbrev  0x0000000000000afe      0x517 build-MT7687Lite/py/gc.o
 .debug_abbrev  0x0000000000001015      0x4b9 build-MT7687Lite/py/qstr.o
 .debug_abbrev  0x00000000000014ce      0x40d build-MT7687Lite/py/vstr.o
 .debug_abbrev  0x00000000000018db      0x44a build-MT7687Lite/py/mpprint.o
 .debug_abbrev  0x0000000000001d25      0x235 build-MT7687Lite/py/unicode.o
 .debug_abbrev  0x0000000000001f5a      0x4db build-MT7687Lite/py/mpz.o
 .debug_abbrev  0x0000000000002435      0x2f5 build-MT7687Lite/py/reader.o
 .debug_abbrev  0x000000000000272a      0x4fc build-MT7687Lite/py/lexer.o
 .debug_abbrev  0x0000000000002c26      0x56e build-MT7687Lite/py/parse.o
 .debug_abbrev  0x0000000000003194      0x3e4 build-MT7687Lite/py/scope.o
 .debug_abbrev  0x0000000000003578      0x5a4 build-MT7687Lite/py/compile.o
 .debug_abbrev  0x0000000000003b1c      0x2e3 build-MT7687Lite/py/emitcommon.o
 .debug_abbrev  0x0000000000003dff      0x564 build-MT7687Lite/py/emitbc.o
 .debug_abbrev  0x0000000000004363      0x1ec build-MT7687Lite/py/parsenumbase.o
 .debug_abbrev  0x000000000000454f      0x368 build-MT7687Lite/py/parsenum.o
 .debug_abbrev  0x00000000000048b7      0x33d build-MT7687Lite/py/emitglue.o
 .debug_abbrev  0x0000000000004bf4      0x43c build-MT7687Lite/py/persistentcode.o
 .debug_abbrev  0x0000000000005030      0x630 build-MT7687Lite/py/runtime.o
 .debug_abbrev  0x0000000000005660      0x2d5 build-MT7687Lite/py/runtime_utils.o
 .debug_abbrev  0x0000000000005935      0x29c build-MT7687Lite/py/stackctrl.o
 .debug_abbrev  0x0000000000005bd1      0x361 build-MT7687Lite/py/argcheck.o
 .debug_abbrev  0x0000000000005f32      0x4d9 build-MT7687Lite/py/map.o
 .debug_abbrev  0x000000000000640b      0x507 build-MT7687Lite/py/obj.o
 .debug_abbrev  0x0000000000006912      0x510 build-MT7687Lite/py/objarray.o
 .debug_abbrev  0x0000000000006e22      0x382 build-MT7687Lite/py/objattrtuple.o
 .debug_abbrev  0x00000000000071a4      0x39a build-MT7687Lite/py/objbool.o
 .debug_abbrev  0x000000000000753e      0x307 build-MT7687Lite/py/objboundmeth.o
 .debug_abbrev  0x0000000000007845      0x2cc build-MT7687Lite/py/objcell.o
 .debug_abbrev  0x0000000000007b11      0x31d build-MT7687Lite/py/objclosure.o
 .debug_abbrev  0x0000000000007e2e      0x592 build-MT7687Lite/py/objdict.o
 .debug_abbrev  0x00000000000083c0      0x37d build-MT7687Lite/py/objenumerate.o
 .debug_abbrev  0x000000000000873d      0x551 build-MT7687Lite/py/objexcept.o
 .debug_abbrev  0x0000000000008c8e      0x2f2 build-MT7687Lite/py/objfilter.o
 .debug_abbrev  0x0000000000008f80      0x48b build-MT7687Lite/py/objfun.o
 .debug_abbrev  0x000000000000940b      0x443 build-MT7687Lite/py/objgenerator.o
 .debug_abbrev  0x000000000000984e      0x366 build-MT7687Lite/py/objgetitemiter.o
 .debug_abbrev  0x0000000000009bb4      0x4b8 build-MT7687Lite/py/objint.o
 .debug_abbrev  0x000000000000a06c      0x4c9 build-MT7687Lite/py/objint_mpz.o
 .debug_abbrev  0x000000000000a535      0x5b8 build-MT7687Lite/py/objlist.o
 .debug_abbrev  0x000000000000aaed      0x2e7 build-MT7687Lite/py/objmap.o
 .debug_abbrev  0x000000000000add4      0x3d1 build-MT7687Lite/py/objmodule.o
 .debug_abbrev  0x000000000000b1a5      0x2ed build-MT7687Lite/py/objobject.o
 .debug_abbrev  0x000000000000b492      0x292 build-MT7687Lite/py/objpolyiter.o
 .debug_abbrev  0x000000000000b724      0x307 build-MT7687Lite/py/objproperty.o
 .debug_abbrev  0x000000000000ba2b      0x264 build-MT7687Lite/py/objnone.o
 .debug_abbrev  0x000000000000bc8f      0x40e build-MT7687Lite/py/objnamedtuple.o
 .debug_abbrev  0x000000000000c09d      0x436 build-MT7687Lite/py/objrange.o
 .debug_abbrev  0x000000000000c4d3      0x35b build-MT7687Lite/py/objreversed.o
 .debug_abbrev  0x000000000000c82e      0x55d build-MT7687Lite/py/objset.o
 .debug_abbrev  0x000000000000cd8b      0x284 build-MT7687Lite/py/objsingleton.o
 .debug_abbrev  0x000000000000d00f      0x31d build-MT7687Lite/py/objslice.o
 .debug_abbrev  0x000000000000d32c      0x659 build-MT7687Lite/py/objstr.o
 .debug_abbrev  0x000000000000d985      0x4c4 build-MT7687Lite/py/objstrunicode.o
 .debug_abbrev  0x000000000000de49      0x414 build-MT7687Lite/py/objstringio.o
 .debug_abbrev  0x000000000000e25d      0x52d build-MT7687Lite/py/objtuple.o
 .debug_abbrev  0x000000000000e78a      0x5fb build-MT7687Lite/py/objtype.o
 .debug_abbrev  0x000000000000ed85      0x2ea build-MT7687Lite/py/objzip.o
 .debug_abbrev  0x000000000000f06f      0x27c build-MT7687Lite/py/opmethods.o
 .debug_abbrev  0x000000000000f2eb      0x387 build-MT7687Lite/py/sequence.o
 .debug_abbrev  0x000000000000f672      0x4f7 build-MT7687Lite/py/stream.o
 .debug_abbrev  0x000000000000fb69      0x3f0 build-MT7687Lite/py/binary.o
 .debug_abbrev  0x000000000000ff59      0x4ce build-MT7687Lite/py/builtinimport.o
 .debug_abbrev  0x0000000000010427      0x364 build-MT7687Lite/py/builtinevex.o
 .debug_abbrev  0x000000000001078b      0x330 build-MT7687Lite/py/builtinhelp.o
 .debug_abbrev  0x0000000000010abb      0x222 build-MT7687Lite/py/modarray.o
 .debug_abbrev  0x0000000000010cdd      0x559 build-MT7687Lite/py/modbuiltins.o
 .debug_abbrev  0x0000000000011236      0x222 build-MT7687Lite/py/modcollections.o
 .debug_abbrev  0x0000000000011458      0x376 build-MT7687Lite/py/modgc.o
 .debug_abbrev  0x00000000000117ce      0x25c build-MT7687Lite/py/modio.o
 .debug_abbrev  0x0000000000011a2a      0x304 build-MT7687Lite/py/modmicropython.o
 .debug_abbrev  0x0000000000011d2e      0x369 build-MT7687Lite/py/modstruct.o
 .debug_abbrev  0x0000000000012097      0x30f build-MT7687Lite/py/modsys.o
 .debug_abbrev  0x00000000000123a6      0x266 build-MT7687Lite/py/moduerrno.o
 .debug_abbrev  0x000000000001260c      0x46b build-MT7687Lite/py/modthread.o
 .debug_abbrev  0x0000000000012a77      0x3aa build-MT7687Lite/py/vm.o
 .debug_abbrev  0x0000000000012e21      0x45f build-MT7687Lite/py/bc.o
 .debug_abbrev  0x0000000000013280      0x31a build-MT7687Lite/py/repl.o
 .debug_abbrev  0x000000000001359a      0x1f9 build-MT7687Lite/py/smallint.o
 .debug_abbrev  0x0000000000013793      0x3dc build-MT7687Lite/extmod/modujson.o
 .debug_abbrev  0x0000000000013b6f      0x572 build-MT7687Lite/extmod/modure.o
 .debug_abbrev  0x00000000000140e1      0x34f build-MT7687Lite/extmod/modubinascii.o
 .debug_abbrev  0x0000000000014430      0x444 build-MT7687Lite/extmod/moduselect.o
 .debug_abbrev  0x0000000000014874      0x4ca build-MT7687Lite/extmod/vfs.o
 .debug_abbrev  0x0000000000014d3e      0x382 build-MT7687Lite/extmod/vfs_reader.o
 .debug_abbrev  0x00000000000150c0      0x436 build-MT7687Lite/extmod/vfs_fat.o
 .debug_abbrev  0x00000000000154f6      0x363 build-MT7687Lite/extmod/vfs_fat_diskio.o
 .debug_abbrev  0x0000000000015859      0x45a build-MT7687Lite/extmod/vfs_fat_file.o
 .debug_abbrev  0x0000000000015cb3      0x2fe build-MT7687Lite/extmod/utime_mphal.o
 .debug_abbrev  0x0000000000015fb1      0x308 build-MT7687Lite/lib/utils/printf.o
 .debug_abbrev  0x00000000000162b9      0x3ae build-MT7687Lite/main.o
 .debug_abbrev  0x0000000000016667      0x3cf build-MT7687Lite/mphalport.o
 .debug_abbrev  0x0000000000016a36      0x3a7 build-MT7687Lite/mpthreadport.o
 .debug_abbrev  0x0000000000016ddd      0x2e4 build-MT7687Lite/fatfs_port.o
 .debug_abbrev  0x00000000000170c1      0x236 build-MT7687Lite/chip/Source/system_MT7687.o
 .debug_abbrev  0x00000000000172f7      0x22e build-MT7687Lite/chip/Source/MT7687_GPIO.o
 .debug_abbrev  0x0000000000017525      0x1e4 build-MT7687Lite/chip/Source/MT7687_UART.o
 .debug_abbrev  0x0000000000017709      0x2c3 build-MT7687Lite/chip/Source/MT7687_TIMR.o
 .debug_abbrev  0x00000000000179cc      0x245 build-MT7687Lite/chip/Source/MT7687_PWM.o
 .debug_abbrev  0x0000000000017c11      0x249 build-MT7687Lite/chip/Source/MT7687_Flash.o
 .debug_abbrev  0x0000000000017e5a      0x219 build-MT7687Lite/rtos/Source/list.o
 .debug_abbrev  0x0000000000018073      0x3cf build-MT7687Lite/rtos/Source/queue.o
 .debug_abbrev  0x0000000000018442      0x446 build-MT7687Lite/rtos/Source/tasks.o
 .debug_abbrev  0x0000000000018888      0x1d4 build-MT7687Lite/rtos/Source/portable/ARM_CM4/port.o
 .debug_abbrev  0x0000000000018a5c      0x314 build-MT7687Lite/rtos/Source/portable/MemMang/heap_4.o
 .debug_abbrev  0x0000000000018d70      0x37f build-MT7687Lite/mods/moduos.o
 .debug_abbrev  0x00000000000190ef      0x3c8 build-MT7687Lite/mods/modmachine.o
 .debug_abbrev  0x00000000000194b7      0x30f build-MT7687Lite/mods/modutime.o
 .debug_abbrev  0x00000000000197c6      0x24d build-MT7687Lite/mods/modubinascii.o
 .debug_abbrev  0x0000000000019a13      0x5da build-MT7687Lite/mods/pybuart.o
 .debug_abbrev  0x0000000000019fed      0x40b build-MT7687Lite/mods/pybflash.o
 .debug_abbrev  0x000000000001a3f8      0x408 build-MT7687Lite/mods/pybpin.o
 .debug_abbrev  0x000000000001a800      0x40f build-MT7687Lite/mods/pybtimer.o
 .debug_abbrev  0x000000000001ac0f      0x36b build-MT7687Lite/mods/pybpwm.o
 .debug_abbrev  0x000000000001af7a      0x2a5 build-MT7687Lite/misc/gccollect.o
 .debug_abbrev  0x000000000001b21f      0x3da build-MT7687Lite/misc/mperror.o
 .debug_abbrev  0x000000000001b5f9      0x304 build-MT7687Lite/misc/random.o
 .debug_abbrev  0x000000000001b8fd      0x3ca build-MT7687Lite/misc/mpirq.o
 .debug_abbrev  0x000000000001bcc7      0x432 build-MT7687Lite/lib/oofatfs/ff.o
 .debug_abbrev  0x000000000001c0f9      0x208 build-MT7687Lite/lib/oofatfs/option/unicode.o
 .debug_abbrev  0x000000000001c301      0x2e1 build-MT7687Lite/lib/libc/string0.o
 .debug_abbrev  0x000000000001c5e2      0x4b9 build-MT7687Lite/lib/mp-readline/readline.o
 .debug_abbrev  0x000000000001ca9b      0x2c9 build-MT7687Lite/lib/timeutils/timeutils.o
 .debug_abbrev  0x000000000001cd64      0x413 build-MT7687Lite/lib/utils/pyexec.o
 .debug_abbrev  0x000000000001d177      0x295 build-MT7687Lite/lib/utils/interrupt_char.o
 .debug_abbrev  0x000000000001d40c      0x379 build-MT7687Lite/lib/utils/sys_stdio_mphal.o
 .debug_abbrev  0x000000000001d785      0x21d build-MT7687Lite/pins.o

.debug_aranges  0x0000000000000000     0x3470
 .debug_aranges
                0x0000000000000000       0x18 build-MT7687Lite/py/mpstate.o
 .debug_aranges
                0x0000000000000018       0x28 build-MT7687Lite/py/nlr.o
 .debug_aranges
                0x0000000000000040       0x28 build-MT7687Lite/py/nlrthumb.o
 .debug_aranges
                0x0000000000000068       0x50 build-MT7687Lite/py/malloc.o
 .debug_aranges
                0x00000000000000b8       0xa0 build-MT7687Lite/py/gc.o
 .debug_aranges
                0x0000000000000158       0x70 build-MT7687Lite/py/qstr.o
 .debug_aranges
                0x00000000000001c8       0xd8 build-MT7687Lite/py/vstr.o
 .debug_aranges
                0x00000000000002a0       0x50 build-MT7687Lite/py/mpprint.o
 .debug_aranges
                0x00000000000002f0       0x90 build-MT7687Lite/py/unicode.o
 .debug_aranges
                0x0000000000000380      0x148 build-MT7687Lite/py/mpz.o
 .debug_aranges
                0x00000000000004c8       0x30 build-MT7687Lite/py/reader.o
 .debug_aranges
                0x00000000000004f8       0x58 build-MT7687Lite/py/lexer.o
 .debug_aranges
                0x0000000000000550       0x88 build-MT7687Lite/py/parse.o
 .debug_aranges
                0x00000000000005d8       0x48 build-MT7687Lite/py/scope.o
 .debug_aranges
                0x0000000000000620      0x268 build-MT7687Lite/py/compile.o
 .debug_aranges
                0x0000000000000888       0x30 build-MT7687Lite/py/emitcommon.o
 .debug_aranges
                0x00000000000008b8      0x250 build-MT7687Lite/py/emitbc.o
 .debug_aranges
                0x0000000000000b08       0x20 build-MT7687Lite/py/parsenumbase.o
 .debug_aranges
                0x0000000000000b28       0x30 build-MT7687Lite/py/parsenum.o
 .debug_aranges
                0x0000000000000b58       0x38 build-MT7687Lite/py/emitglue.o
 .debug_aranges
                0x0000000000000b90       0x50 build-MT7687Lite/py/persistentcode.o
 .debug_aranges
                0x0000000000000be0      0x160 build-MT7687Lite/py/runtime.o
 .debug_aranges
                0x0000000000000d40       0x28 build-MT7687Lite/py/runtime_utils.o
 .debug_aranges
                0x0000000000000d68       0x30 build-MT7687Lite/py/stackctrl.o
 .debug_aranges
                0x0000000000000d98       0x40 build-MT7687Lite/py/argcheck.o
 .debug_aranges
                0x0000000000000dd8       0x70 build-MT7687Lite/py/map.o
 .debug_aranges
                0x0000000000000e48       0xd0 build-MT7687Lite/py/obj.o
 .debug_aranges
                0x0000000000000f18       0xa0 build-MT7687Lite/py/objarray.o
 .debug_aranges
                0x0000000000000fb8       0x38 build-MT7687Lite/py/objattrtuple.o
 .debug_aranges
                0x0000000000000ff0       0x38 build-MT7687Lite/py/objbool.o
 .debug_aranges
                0x0000000000001028       0x30 build-MT7687Lite/py/objboundmeth.o
 .debug_aranges
                0x0000000000001058       0x30 build-MT7687Lite/py/objcell.o
 .debug_aranges
                0x0000000000001088       0x28 build-MT7687Lite/py/objclosure.o
 .debug_aranges
                0x00000000000010b0      0x108 build-MT7687Lite/py/objdict.o
 .debug_aranges
                0x00000000000011b8       0x28 build-MT7687Lite/py/objenumerate.o
 .debug_aranges
                0x00000000000011e0       0xa8 build-MT7687Lite/py/objexcept.o
 .debug_aranges
                0x0000000000001288       0x28 build-MT7687Lite/py/objfilter.o
 .debug_aranges
                0x00000000000012b0       0x68 build-MT7687Lite/py/objfun.o
 .debug_aranges
                0x0000000000001318       0x68 build-MT7687Lite/py/objgenerator.o
 .debug_aranges
                0x0000000000001380       0x28 build-MT7687Lite/py/objgetitemiter.o
 .debug_aranges
                0x00000000000013a8       0x50 build-MT7687Lite/py/objint.o
 .debug_aranges
                0x00000000000013f8       0x88 build-MT7687Lite/py/objint_mpz.o
 .debug_aranges
                0x0000000000001480       0xe8 build-MT7687Lite/py/objlist.o
 .debug_aranges
                0x0000000000001568       0x28 build-MT7687Lite/py/objmap.o
 .debug_aranges
                0x0000000000001590       0x40 build-MT7687Lite/py/objmodule.o
 .debug_aranges
                0x00000000000015d0       0x30 build-MT7687Lite/py/objobject.o
 .debug_aranges
                0x0000000000001600       0x20 build-MT7687Lite/py/objpolyiter.o
 .debug_aranges
                0x0000000000001620       0x40 build-MT7687Lite/py/objproperty.o
 .debug_aranges
                0x0000000000001660       0x20 build-MT7687Lite/py/objnone.o
 .debug_aranges
                0x0000000000001680       0x48 build-MT7687Lite/py/objnamedtuple.o
 .debug_aranges
                0x00000000000016c8       0x58 build-MT7687Lite/py/objrange.o
 .debug_aranges
                0x0000000000001720       0x28 build-MT7687Lite/py/objreversed.o
 .debug_aranges
                0x0000000000001748      0x108 build-MT7687Lite/py/objset.o
 .debug_aranges
                0x0000000000001850       0x20 build-MT7687Lite/py/objsingleton.o
 .debug_aranges
                0x0000000000001870       0x30 build-MT7687Lite/py/objslice.o
 .debug_aranges
                0x00000000000018a0      0x1e8 build-MT7687Lite/py/objstr.o
 .debug_aranges
                0x0000000000001a88       0x48 build-MT7687Lite/py/objstrunicode.o
 .debug_aranges
                0x0000000000001ad0       0x50 build-MT7687Lite/py/objstringio.o
 .debug_aranges
                0x0000000000001b20       0x78 build-MT7687Lite/py/objtuple.o
 .debug_aranges
                0x0000000000001b98      0x100 build-MT7687Lite/py/objtype.o
 .debug_aranges
                0x0000000000001c98       0x28 build-MT7687Lite/py/objzip.o
 .debug_aranges
                0x0000000000001cc0       0x38 build-MT7687Lite/py/opmethods.o
 .debug_aranges
                0x0000000000001cf8       0x50 build-MT7687Lite/py/sequence.o
 .debug_aranges
                0x0000000000001d48       0xa8 build-MT7687Lite/py/stream.o
 .debug_aranges
                0x0000000000001df0       0x58 build-MT7687Lite/py/binary.o
 .debug_aranges
                0x0000000000001e48       0x40 build-MT7687Lite/py/builtinimport.o
 .debug_aranges
                0x0000000000001e88       0x38 build-MT7687Lite/py/builtinevex.o
 .debug_aranges
                0x0000000000001ec0       0x20 build-MT7687Lite/py/builtinhelp.o
 .debug_aranges
                0x0000000000001ee0       0x18 build-MT7687Lite/py/modarray.o
 .debug_aranges
                0x0000000000001ef8      0x118 build-MT7687Lite/py/modbuiltins.o
 .debug_aranges
                0x0000000000002010       0x18 build-MT7687Lite/py/modcollections.o
 .debug_aranges
                0x0000000000002028       0x50 build-MT7687Lite/py/modgc.o
 .debug_aranges
                0x0000000000002078       0x18 build-MT7687Lite/py/modio.o
 .debug_aranges
                0x0000000000002090       0x38 build-MT7687Lite/py/modmicropython.o
 .debug_aranges
                0x00000000000020c8       0x58 build-MT7687Lite/py/modstruct.o
 .debug_aranges
                0x0000000000002120       0x28 build-MT7687Lite/py/modsys.o
 .debug_aranges
                0x0000000000002148       0x20 build-MT7687Lite/py/moduerrno.o
 .debug_aranges
                0x0000000000002168       0x68 build-MT7687Lite/py/modthread.o
 .debug_aranges
                0x00000000000021d0       0x20 build-MT7687Lite/py/vm.o
 .debug_aranges
                0x00000000000021f0       0x40 build-MT7687Lite/py/bc.o
 .debug_aranges
                0x0000000000002230       0x30 build-MT7687Lite/py/repl.o
 .debug_aranges
                0x0000000000002260       0x30 build-MT7687Lite/py/smallint.o
 .debug_aranges
                0x0000000000002290       0x40 build-MT7687Lite/extmod/modujson.o
 .debug_aranges
                0x00000000000022d0       0xa8 build-MT7687Lite/extmod/modure.o
 .debug_aranges
                0x0000000000002378       0x38 build-MT7687Lite/extmod/modubinascii.o
 .debug_aranges
                0x00000000000023b0       0x78 build-MT7687Lite/extmod/moduselect.o
 .debug_aranges
                0x0000000000002428       0xa8 build-MT7687Lite/extmod/vfs.o
 .debug_aranges
                0x00000000000024d0       0x30 build-MT7687Lite/extmod/vfs_reader.o
 .debug_aranges
                0x0000000000002500       0xa0 build-MT7687Lite/extmod/vfs_fat.o
 .debug_aranges
                0x00000000000025a0       0x30 build-MT7687Lite/extmod/vfs_fat_diskio.o
 .debug_aranges
                0x00000000000025d0       0x58 build-MT7687Lite/extmod/vfs_fat_file.o
 .debug_aranges
                0x0000000000002628       0x58 build-MT7687Lite/extmod/utime_mphal.o
 .debug_aranges
                0x0000000000002680       0x50 build-MT7687Lite/lib/utils/printf.o
 .debug_aranges
                0x00000000000026d0       0x38 build-MT7687Lite/main.o
 .debug_aranges
                0x0000000000002708       0x60 build-MT7687Lite/mphalport.o
 .debug_aranges
                0x0000000000002768       0x70 build-MT7687Lite/mpthreadport.o
 .debug_aranges
                0x00000000000027d8       0x40 build-MT7687Lite/fatfs_port.o
 .debug_aranges
                0x0000000000002818       0x30 build-MT7687Lite/chip/Source/system_MT7687.o
 .debug_aranges
                0x0000000000002848       0x48 build-MT7687Lite/chip/Source/MT7687_GPIO.o
 .debug_aranges
                0x0000000000002890       0x20 build-MT7687Lite/chip/Source/MT7687_UART.o
 .debug_aranges
                0x00000000000028b0       0x48 build-MT7687Lite/chip/Source/MT7687_TIMR.o
 .debug_aranges
                0x00000000000028f8       0x68 build-MT7687Lite/chip/Source/MT7687_PWM.o
 .debug_aranges
                0x0000000000002960       0x20 build-MT7687Lite/chip/Source/MT7687_Flash.o
 .debug_aranges
                0x0000000000002980       0x40 build-MT7687Lite/rtos/Source/list.o
 .debug_aranges
                0x00000000000029c0       0xc0 build-MT7687Lite/rtos/Source/queue.o
 .debug_aranges
                0x0000000000002a80      0x150 build-MT7687Lite/rtos/Source/tasks.o
 .debug_aranges
                0x0000000000002bd0       0x70 build-MT7687Lite/rtos/Source/portable/ARM_CM4/port.o
 .debug_aranges
                0x0000000000002c40       0x48 build-MT7687Lite/rtos/Source/portable/MemMang/heap_4.o
 .debug_aranges
                0x0000000000002c88       0x40 build-MT7687Lite/mods/moduos.o
 .debug_aranges
                0x0000000000002cc8       0x58 build-MT7687Lite/mods/modmachine.o
 .debug_aranges
                0x0000000000002d20       0x38 build-MT7687Lite/mods/modutime.o
 .debug_aranges
                0x0000000000002d58       0x18 build-MT7687Lite/mods/modubinascii.o
 .debug_aranges
                0x0000000000002d70       0xd8 build-MT7687Lite/mods/pybuart.o
 .debug_aranges
                0x0000000000002e48       0x60 build-MT7687Lite/mods/pybflash.o
 .debug_aranges
                0x0000000000002ea8       0x60 build-MT7687Lite/mods/pybpin.o
 .debug_aranges
                0x0000000000002f08       0x48 build-MT7687Lite/mods/pybtimer.o
 .debug_aranges
                0x0000000000002f50       0x58 build-MT7687Lite/mods/pybpwm.o
 .debug_aranges
                0x0000000000002fa8       0x20 build-MT7687Lite/misc/gccollect.o
 .debug_aranges
                0x0000000000002fc8       0x60 build-MT7687Lite/misc/mperror.o
 .debug_aranges
                0x0000000000003028       0x30 build-MT7687Lite/misc/random.o
 .debug_aranges
                0x0000000000003058       0x80 build-MT7687Lite/misc/mpirq.o
 .debug_aranges
                0x00000000000030d8      0x198 build-MT7687Lite/lib/oofatfs/ff.o
 .debug_aranges
                0x0000000000003270       0x28 build-MT7687Lite/lib/oofatfs/option/unicode.o
 .debug_aranges
                0x0000000000003298       0x80 build-MT7687Lite/lib/libc/string0.o
 .debug_aranges
                0x0000000000003318       0x58 build-MT7687Lite/lib/mp-readline/readline.o
 .debug_aranges
                0x0000000000003370       0x48 build-MT7687Lite/lib/timeutils/timeutils.o
 .debug_aranges
                0x00000000000033b8       0x40 build-MT7687Lite/lib/utils/pyexec.o
 .debug_aranges
                0x00000000000033f8       0x28 build-MT7687Lite/lib/utils/interrupt_char.o
 .debug_aranges
                0x0000000000003420       0x38 build-MT7687Lite/lib/utils/sys_stdio_mphal.o
 .debug_aranges
                0x0000000000003458       0x18 build-MT7687Lite/pins.o

.debug_line     0x0000000000000000    0x231b4
 .debug_line    0x0000000000000000      0x273 build-MT7687Lite/py/mpstate.o
 .debug_line    0x0000000000000273      0x294 build-MT7687Lite/py/nlr.o
 .debug_line    0x0000000000000507      0x2a8 build-MT7687Lite/py/nlrthumb.o
 .debug_line    0x00000000000007af      0x351 build-MT7687Lite/py/malloc.o
 .debug_line    0x0000000000000b00      0x799 build-MT7687Lite/py/gc.o
 .debug_line    0x0000000000001299      0x462 build-MT7687Lite/py/qstr.o
 .debug_line    0x00000000000016fb      0x50e build-MT7687Lite/py/vstr.o
 .debug_line    0x0000000000001c09      0x54f build-MT7687Lite/py/mpprint.o
 .debug_line    0x0000000000002158      0x2f1 build-MT7687Lite/py/unicode.o
 .debug_line    0x0000000000002449      0x9d3 build-MT7687Lite/py/mpz.o
 .debug_line    0x0000000000002e1c      0x2d2 build-MT7687Lite/py/reader.o
 .debug_line    0x00000000000030ee      0x672 build-MT7687Lite/py/lexer.o
 .debug_line    0x0000000000003760      0x752 build-MT7687Lite/py/parse.o
 .debug_line    0x0000000000003eb2      0x2f9 build-MT7687Lite/py/scope.o
 .debug_line    0x00000000000041ab     0x16ac build-MT7687Lite/py/compile.o
 .debug_line    0x0000000000005857      0x2a6 build-MT7687Lite/py/emitcommon.o
 .debug_line    0x0000000000005afd      0xca1 build-MT7687Lite/py/emitbc.o
 .debug_line    0x000000000000679e      0x1e0 build-MT7687Lite/py/parsenumbase.o
 .debug_line    0x000000000000697e      0x383 build-MT7687Lite/py/parsenum.o
 .debug_line    0x0000000000006d01      0x355 build-MT7687Lite/py/emitglue.o
 .debug_line    0x0000000000007056      0x41e build-MT7687Lite/py/persistentcode.o
 .debug_line    0x0000000000007474      0xb6d build-MT7687Lite/py/runtime.o
 .debug_line    0x0000000000007fe1      0x2b6 build-MT7687Lite/py/runtime_utils.o
 .debug_line    0x0000000000008297      0x2b5 build-MT7687Lite/py/stackctrl.o
 .debug_line    0x000000000000854c      0x36b build-MT7687Lite/py/argcheck.o
 .debug_line    0x00000000000088b7      0x535 build-MT7687Lite/py/map.o
 .debug_line    0x0000000000008dec      0x5d3 build-MT7687Lite/py/obj.o
 .debug_line    0x00000000000093bf      0x61b build-MT7687Lite/py/objarray.o
 .debug_line    0x00000000000099da      0x258 build-MT7687Lite/py/objattrtuple.o
 .debug_line    0x0000000000009c32      0x320 build-MT7687Lite/py/objbool.o
 .debug_line    0x0000000000009f52      0x2d2 build-MT7687Lite/py/objboundmeth.o
 .debug_line    0x000000000000a224      0x1f1 build-MT7687Lite/py/objcell.o
 .debug_line    0x000000000000a415      0x2c6 build-MT7687Lite/py/objclosure.o
 .debug_line    0x000000000000a6db      0x622 build-MT7687Lite/py/objdict.o
 .debug_line    0x000000000000acfd      0x30c build-MT7687Lite/py/objenumerate.o
 .debug_line    0x000000000000b009      0x5b2 build-MT7687Lite/py/objexcept.o
 .debug_line    0x000000000000b5bb      0x2b6 build-MT7687Lite/py/objfilter.o
 .debug_line    0x000000000000b871      0x480 build-MT7687Lite/py/objfun.o
 .debug_line    0x000000000000bcf1      0x42b build-MT7687Lite/py/objgenerator.o
 .debug_line    0x000000000000c11c      0x300 build-MT7687Lite/py/objgetitemiter.o
 .debug_line    0x000000000000c41c      0x4a8 build-MT7687Lite/py/objint.o
 .debug_line    0x000000000000c8c4      0x4e9 build-MT7687Lite/py/objint_mpz.o
 .debug_line    0x000000000000cdad      0x697 build-MT7687Lite/py/objlist.o
 .debug_line    0x000000000000d444      0x313 build-MT7687Lite/py/objmap.o
 .debug_line    0x000000000000d757      0x36f build-MT7687Lite/py/objmodule.o
 .debug_line    0x000000000000dac6      0x312 build-MT7687Lite/py/objobject.o
 .debug_line    0x000000000000ddd8      0x2d1 build-MT7687Lite/py/objpolyiter.o
 .debug_line    0x000000000000e0a9      0x32f build-MT7687Lite/py/objproperty.o
 .debug_line    0x000000000000e3d8      0x20b build-MT7687Lite/py/objnone.o
 .debug_line    0x000000000000e5e3      0x3a1 build-MT7687Lite/py/objnamedtuple.o
 .debug_line    0x000000000000e984      0x3cc build-MT7687Lite/py/objrange.o
 .debug_line    0x000000000000ed50      0x2f6 build-MT7687Lite/py/objreversed.o
 .debug_line    0x000000000000f046      0x66e build-MT7687Lite/py/objset.o
 .debug_line    0x000000000000f6b4      0x20e build-MT7687Lite/py/objsingleton.o
 .debug_line    0x000000000000f8c2      0x259 build-MT7687Lite/py/objslice.o
 .debug_line    0x000000000000fb1b     0x1147 build-MT7687Lite/py/objstr.o
 .debug_line    0x0000000000010c62      0x474 build-MT7687Lite/py/objstrunicode.o
 .debug_line    0x00000000000110d6      0x3d8 build-MT7687Lite/py/objstringio.o
 .debug_line    0x00000000000114ae      0x46d build-MT7687Lite/py/objtuple.o
 .debug_line    0x000000000001191b      0x991 build-MT7687Lite/py/objtype.o
 .debug_line    0x00000000000122ac      0x31c build-MT7687Lite/py/objzip.o
 .debug_line    0x00000000000125c8      0x21b build-MT7687Lite/py/opmethods.o
 .debug_line    0x00000000000127e3      0x459 build-MT7687Lite/py/sequence.o
 .debug_line    0x0000000000012c3c      0x589 build-MT7687Lite/py/stream.o
 .debug_line    0x00000000000131c5      0x454 build-MT7687Lite/py/binary.o
 .debug_line    0x0000000000013619      0x57f build-MT7687Lite/py/builtinimport.o
 .debug_line    0x0000000000013b98      0x329 build-MT7687Lite/py/builtinevex.o
 .debug_line    0x0000000000013ec1      0x22c build-MT7687Lite/py/builtinhelp.o
 .debug_line    0x00000000000140ed      0x1ca build-MT7687Lite/py/modarray.o
 .debug_line    0x00000000000142b7      0x734 build-MT7687Lite/py/modbuiltins.o
 .debug_line    0x00000000000149eb      0x1d0 build-MT7687Lite/py/modcollections.o
 .debug_line    0x0000000000014bbb      0x312 build-MT7687Lite/py/modgc.o
 .debug_line    0x0000000000014ecd      0x297 build-MT7687Lite/py/modio.o
 .debug_line    0x0000000000015164      0x2f4 build-MT7687Lite/py/modmicropython.o
 .debug_line    0x0000000000015458      0x3ea build-MT7687Lite/py/modstruct.o
 .debug_line    0x0000000000015842      0x2ed build-MT7687Lite/py/modsys.o
 .debug_line    0x0000000000015b2f      0x1db build-MT7687Lite/py/moduerrno.o
 .debug_line    0x0000000000015d0a      0x40d build-MT7687Lite/py/modthread.o
 .debug_line    0x0000000000016117      0x979 build-MT7687Lite/py/vm.o
 .debug_line    0x0000000000016a90      0x412 build-MT7687Lite/py/bc.o
 .debug_line    0x0000000000016ea2      0x47a build-MT7687Lite/py/repl.o
 .debug_line    0x000000000001731c      0x1f4 build-MT7687Lite/py/smallint.o
 .debug_line    0x0000000000017510      0x420 build-MT7687Lite/extmod/modujson.o
 .debug_line    0x0000000000017930      0x881 build-MT7687Lite/extmod/modure.o
 .debug_line    0x00000000000181b1      0x3e6 build-MT7687Lite/extmod/modubinascii.o
 .debug_line    0x0000000000018597      0x509 build-MT7687Lite/extmod/moduselect.o
 .debug_line    0x0000000000018aa0      0x59c build-MT7687Lite/extmod/vfs.o
 .debug_line    0x000000000001903c      0x345 build-MT7687Lite/extmod/vfs_reader.o
 .debug_line    0x0000000000019381      0x53a build-MT7687Lite/extmod/vfs_fat.o
 .debug_line    0x00000000000198bb      0x37b build-MT7687Lite/extmod/vfs_fat_diskio.o
 .debug_line    0x0000000000019c36      0x40d build-MT7687Lite/extmod/vfs_fat_file.o
 .debug_line    0x000000000001a043      0x343 build-MT7687Lite/extmod/utime_mphal.o
 .debug_line    0x000000000001a386      0x2cc build-MT7687Lite/lib/utils/printf.o
 .debug_line    0x000000000001a652      0x4b6 build-MT7687Lite/main.o
 .debug_line    0x000000000001ab08      0x3f4 build-MT7687Lite/mphalport.o
 .debug_line    0x000000000001aefc      0x3bd build-MT7687Lite/mpthreadport.o
 .debug_line    0x000000000001b2b9      0x2fd build-MT7687Lite/fatfs_port.o
 .debug_line    0x000000000001b5b6      0x203 build-MT7687Lite/chip/Source/system_MT7687.o
 .debug_line    0x000000000001b7b9      0x246 build-MT7687Lite/chip/Source/MT7687_GPIO.o
 .debug_line    0x000000000001b9ff      0x19e build-MT7687Lite/chip/Source/MT7687_UART.o
 .debug_line    0x000000000001bb9d      0x211 build-MT7687Lite/chip/Source/MT7687_TIMR.o
 .debug_line    0x000000000001bdae      0x22b build-MT7687Lite/chip/Source/MT7687_PWM.o
 .debug_line    0x000000000001bfd9      0x251 build-MT7687Lite/chip/Source/MT7687_Flash.o
 .debug_line    0x000000000001c22a      0x23f build-MT7687Lite/rtos/Source/list.o
 .debug_line    0x000000000001c469      0x59f build-MT7687Lite/rtos/Source/queue.o
 .debug_line    0x000000000001ca08      0x7fb build-MT7687Lite/rtos/Source/tasks.o
 .debug_line    0x000000000001d203      0x202 build-MT7687Lite/rtos/Source/portable/ARM_CM4/port.o
 .debug_line    0x000000000001d405      0x298 build-MT7687Lite/rtos/Source/portable/MemMang/heap_4.o
 .debug_line    0x000000000001d69d      0x364 build-MT7687Lite/mods/moduos.o
 .debug_line    0x000000000001da01      0x444 build-MT7687Lite/mods/modmachine.o
 .debug_line    0x000000000001de45      0x339 build-MT7687Lite/mods/modutime.o
 .debug_line    0x000000000001e17e      0x2a9 build-MT7687Lite/mods/modubinascii.o
 .debug_line    0x000000000001e427      0x616 build-MT7687Lite/mods/pybuart.o
 .debug_line    0x000000000001ea3d      0x3fb build-MT7687Lite/mods/pybflash.o
 .debug_line    0x000000000001ee38      0x3cc build-MT7687Lite/mods/pybpin.o
 .debug_line    0x000000000001f204      0x3ee build-MT7687Lite/mods/pybtimer.o
 .debug_line    0x000000000001f5f2      0x3f5 build-MT7687Lite/mods/pybpwm.o
 .debug_line    0x000000000001f9e7      0x2b4 build-MT7687Lite/misc/gccollect.o
 .debug_line    0x000000000001fc9b      0x39d build-MT7687Lite/misc/mperror.o
 .debug_line    0x0000000000020038      0x212 build-MT7687Lite/misc/random.o
 .debug_line    0x000000000002024a      0x412 build-MT7687Lite/misc/mpirq.o
 .debug_line    0x000000000002065c     0x1286 build-MT7687Lite/lib/oofatfs/ff.o
 .debug_line    0x00000000000218e2      0x214 build-MT7687Lite/lib/oofatfs/option/unicode.o
 .debug_line    0x0000000000021af6      0x30b build-MT7687Lite/lib/libc/string0.o
 .debug_line    0x0000000000021e01      0x510 build-MT7687Lite/lib/mp-readline/readline.o
 .debug_line    0x0000000000022311      0x2fe build-MT7687Lite/lib/timeutils/timeutils.o
 .debug_line    0x000000000002260f      0x4ae build-MT7687Lite/lib/utils/pyexec.o
 .debug_line    0x0000000000022abd      0x2af build-MT7687Lite/lib/utils/interrupt_char.o
 .debug_line    0x0000000000022d6c      0x24b build-MT7687Lite/lib/utils/sys_stdio_mphal.o
 .debug_line    0x0000000000022fb7      0x1fd build-MT7687Lite/pins.o

.debug_str      0x0000000000000000    0x15029
 .debug_str     0x0000000000000000     0x1b5a build-MT7687Lite/py/mpstate.o
                                       0x1e6f (size before relaxing)
 .debug_str     0x0000000000001b5a       0x39 build-MT7687Lite/py/nlr.o
                                       0x1b40 (size before relaxing)
 .debug_str     0x0000000000001b93      0x162 build-MT7687Lite/py/nlrthumb.o
                                       0x1b5c (size before relaxing)
 .debug_str     0x0000000000001cf5       0xbb build-MT7687Lite/py/malloc.o
                                       0x1bd3 (size before relaxing)
 .debug_str     0x0000000000001db0     0x2288 build-MT7687Lite/py/gc.o
                                       0x3d06 (size before relaxing)
 .debug_str     0x0000000000004038      0x100 build-MT7687Lite/py/qstr.o
                                       0x3e8d (size before relaxing)
 .debug_str     0x0000000000004138      0x1ef build-MT7687Lite/py/vstr.o
                                       0x1d94 (size before relaxing)
 .debug_str     0x0000000000004327      0x1c5 build-MT7687Lite/py/mpprint.o
                                       0x2107 (size before relaxing)
 .debug_str     0x00000000000044ec      0x105 build-MT7687Lite/py/unicode.o
                                        0x827 (size before relaxing)
 .debug_str     0x00000000000045f1      0x3a2 build-MT7687Lite/py/mpz.o
                                        0xb7c (size before relaxing)
 .debug_str     0x0000000000004993       0x7d build-MT7687Lite/py/reader.o
                                       0x1bf0 (size before relaxing)
 .debug_str     0x0000000000004a10      0xa89 build-MT7687Lite/py/lexer.o
                                       0x276d (size before relaxing)
 .debug_str     0x0000000000005499     0x36e2 build-MT7687Lite/py/parse.o
                                       0x7eb5 (size before relaxing)
 .debug_str     0x0000000000008b7b      0x2be build-MT7687Lite/py/scope.o
                                       0x3b1a (size before relaxing)
 .debug_str     0x0000000000008e39     0x2049 build-MT7687Lite/py/compile.o
                                       0x6d32 (size before relaxing)
 .debug_str     0x000000000000ae82       0x28 build-MT7687Lite/py/emitcommon.o
                                       0x24e1 (size before relaxing)
 .debug_str     0x000000000000aeaa      0x42d build-MT7687Lite/py/emitbc.o
                                       0x5594 (size before relaxing)
 .debug_str     0x000000000000b2d7       0x34 build-MT7687Lite/py/parsenumbase.o
                                        0x737 (size before relaxing)
 .debug_str     0x000000000000b30b       0xa9 build-MT7687Lite/py/parsenum.o
                                       0x4366 (size before relaxing)
 .debug_str     0x000000000000b3b4       0xd3 build-MT7687Lite/py/emitglue.o
                                       0x1d2b (size before relaxing)
 .debug_str     0x000000000000b487      0x15e build-MT7687Lite/py/persistentcode.o
                                       0x1eb7 (size before relaxing)
 .debug_str     0x000000000000b5e5      0x8e1 build-MT7687Lite/py/runtime.o
                                       0x5ab1 (size before relaxing)
 .debug_str     0x000000000000bec6       0x4d build-MT7687Lite/py/runtime_utils.o
                                       0x1be3 (size before relaxing)
 .debug_str     0x000000000000bf13       0x54 build-MT7687Lite/py/stackctrl.o
                                       0x1ba0 (size before relaxing)
 .debug_str     0x000000000000bf67      0x174 build-MT7687Lite/py/argcheck.o
                                       0x1e26 (size before relaxing)
 .debug_str     0x000000000000c0db      0x11d build-MT7687Lite/py/map.o
                                       0x2154 (size before relaxing)
 .debug_str     0x000000000000c1f8      0x30e build-MT7687Lite/py/obj.o
                                       0x4426 (size before relaxing)
 .debug_str     0x000000000000c506      0x318 build-MT7687Lite/py/objarray.o
                                       0x4485 (size before relaxing)
 .debug_str     0x000000000000c81e       0x78 build-MT7687Lite/py/objattrtuple.o
                                       0x383d (size before relaxing)
 .debug_str     0x000000000000c896       0x49 build-MT7687Lite/py/objbool.o
                                       0x3e21 (size before relaxing)
 .debug_str     0x000000000000c8df       0x7c build-MT7687Lite/py/objboundmeth.o
                                       0x3e37 (size before relaxing)
 .debug_str     0x000000000000c95b       0x5f build-MT7687Lite/py/objcell.o
                                       0x37ca (size before relaxing)
 .debug_str     0x000000000000c9ba       0x4b build-MT7687Lite/py/objclosure.o
                                       0x3e09 (size before relaxing)
 .debug_str     0x000000000000ca05      0x383 build-MT7687Lite/py/objdict.o
                                       0x4a7c (size before relaxing)
 .debug_str     0x000000000000cd88       0x68 build-MT7687Lite/py/objenumerate.o
                                       0x3f18 (size before relaxing)
 .debug_str     0x000000000000cdf0      0x1da build-MT7687Lite/py/objexcept.o
                                       0x4422 (size before relaxing)
 .debug_str     0x000000000000cfca       0x46 build-MT7687Lite/py/objfilter.o
                                       0x3e00 (size before relaxing)
 .debug_str     0x000000000000d010      0x18d build-MT7687Lite/py/objfun.o
                                       0x413e (size before relaxing)
 .debug_str     0x000000000000d19d      0x17c build-MT7687Lite/py/objgenerator.o
                                       0x4240 (size before relaxing)
 .debug_str     0x000000000000d319       0x31 build-MT7687Lite/py/objgetitemiter.o
                                       0x3dfb (size before relaxing)
 .debug_str     0x000000000000d34a      0x184 build-MT7687Lite/py/objint.o
                                       0x43aa (size before relaxing)
 .debug_str     0x000000000000d4ce       0xcb build-MT7687Lite/py/objint_mpz.o
                                       0x231d (size before relaxing)
 .debug_str     0x000000000000d599      0x2e1 build-MT7687Lite/py/objlist.o
                                       0x43c2 (size before relaxing)
 .debug_str     0x000000000000d87a       0x4a build-MT7687Lite/py/objmap.o
                                       0x3e04 (size before relaxing)
 .debug_str     0x000000000000d8c4       0xd2 build-MT7687Lite/py/objmodule.o
                                       0x45fa (size before relaxing)
 .debug_str     0x000000000000d996       0xd3 build-MT7687Lite/py/objobject.o
                                       0x3efa (size before relaxing)
 .debug_str     0x000000000000da69       0x46 build-MT7687Lite/py/objpolyiter.o
                                       0x3da6 (size before relaxing)
 .debug_str     0x000000000000daaf      0x117 build-MT7687Lite/py/objproperty.o
                                       0x3fad (size before relaxing)
 .debug_str     0x000000000000dbc6       0x1e build-MT7687Lite/py/objnone.o
                                       0x3789 (size before relaxing)
 .debug_str     0x000000000000dbe4      0x11b build-MT7687Lite/py/objnamedtuple.o
                                       0x22fc (size before relaxing)
 .debug_str     0x000000000000dcff       0xcb build-MT7687Lite/py/objrange.o
                                       0x3f59 (size before relaxing)
 .debug_str     0x000000000000ddca       0x58 build-MT7687Lite/py/objreversed.o
                                       0x3e2e (size before relaxing)
 .debug_str     0x000000000000de22      0x3aa build-MT7687Lite/py/objset.o
                                       0x49f4 (size before relaxing)
 .debug_str     0x000000000000e1cc       0x3a build-MT7687Lite/py/objsingleton.o
                                       0x37ba (size before relaxing)
 .debug_str     0x000000000000e206       0x65 build-MT7687Lite/py/objslice.o
                                       0x384a (size before relaxing)
 .debug_str     0x000000000000e26b      0x660 build-MT7687Lite/py/objstr.o
                                       0x4d80 (size before relaxing)
 .debug_str     0x000000000000e8cb       0xbe build-MT7687Lite/py/objstrunicode.o
                                       0x42a8 (size before relaxing)
 .debug_str     0x000000000000e989      0x1d8 build-MT7687Lite/py/objstringio.o
                                       0x43de (size before relaxing)
 .debug_str     0x000000000000eb61      0x16d build-MT7687Lite/py/objtuple.o
                                       0x4188 (size before relaxing)
 .debug_str     0x000000000000ecce      0x359 build-MT7687Lite/py/objtype.o
                                       0x45b0 (size before relaxing)
 .debug_str     0x000000000000f027       0x3a build-MT7687Lite/py/objzip.o
                                       0x3e07 (size before relaxing)
 .debug_str     0x000000000000f061       0x52 build-MT7687Lite/py/opmethods.o
                                       0x1f61 (size before relaxing)
 .debug_str     0x000000000000f0b3       0x4e build-MT7687Lite/py/sequence.o
                                       0x1d04 (size before relaxing)
 .debug_str     0x000000000000f101      0x1ca build-MT7687Lite/py/stream.o
                                       0x25e0 (size before relaxing)
 .debug_str     0x000000000000f2cb       0x9a build-MT7687Lite/py/binary.o
                                       0x1da8 (size before relaxing)
 .debug_str     0x000000000000f365      0x205 build-MT7687Lite/py/builtinimport.o
                                       0x5282 (size before relaxing)
 .debug_str     0x000000000000f56a       0x5c build-MT7687Lite/py/builtinevex.o
                                       0x4d42 (size before relaxing)
 .debug_str     0x000000000000f5c6       0x60 build-MT7687Lite/py/builtinhelp.o
                                       0x1fe6 (size before relaxing)
 .debug_str     0x000000000000f626       0x4a build-MT7687Lite/py/modarray.o
                                       0x3e18 (size before relaxing)
 .debug_str     0x000000000000f670      0x326 build-MT7687Lite/py/modbuiltins.o
                                       0x4f76 (size before relaxing)
 .debug_str     0x000000000000f996       0x5c build-MT7687Lite/py/modcollections.o
                                       0x3e2a (size before relaxing)
 .debug_str     0x000000000000f9f2      0x106 build-MT7687Lite/py/modgc.o
                                       0x3f62 (size before relaxing)
 .debug_str     0x000000000000faf8       0x6f build-MT7687Lite/py/modio.o
                                       0x4535 (size before relaxing)
 .debug_str     0x000000000000fb67      0x180 build-MT7687Lite/py/modmicropython.o
                                       0x4560 (size before relaxing)
 .debug_str     0x000000000000fce7      0x152 build-MT7687Lite/py/modstruct.o
                                       0x4659 (size before relaxing)
 .debug_str     0x000000000000fe39      0x139 build-MT7687Lite/py/modsys.o
                                       0x48a4 (size before relaxing)
 .debug_str     0x000000000000ff72       0x57 build-MT7687Lite/py/moduerrno.o
                                       0x3810 (size before relaxing)
 .debug_str     0x000000000000ffc9      0x2e9 build-MT7687Lite/py/modthread.o
                                       0x4360 (size before relaxing)
 .debug_str     0x00000000000102b2       0xeb build-MT7687Lite/py/vm.o
                                       0x4099 (size before relaxing)
 .debug_str     0x000000000001039d       0x9b build-MT7687Lite/py/bc.o
                                       0x21fc (size before relaxing)
 .debug_str     0x0000000000010438       0xe3 build-MT7687Lite/py/repl.o
                                       0x41b6 (size before relaxing)
 .debug_str     0x000000000001051b       0x23 build-MT7687Lite/py/smallint.o
                                        0x766 (size before relaxing)
 .debug_str     0x000000000001053e      0x12c build-MT7687Lite/extmod/modujson.o
                                       0x4277 (size before relaxing)
 .debug_str     0x000000000001066a      0x2fd build-MT7687Lite/extmod/modure.o
                                       0x448e (size before relaxing)
 .debug_str     0x0000000000010967      0x134 build-MT7687Lite/extmod/modubinascii.o
                                       0x20fa (size before relaxing)
 .debug_str     0x0000000000010a9b      0x26d build-MT7687Lite/extmod/moduselect.o
                                       0x436e (size before relaxing)
 .debug_str     0x0000000000010d08      0x2f0 build-MT7687Lite/extmod/vfs.o
                                       0x464a (size before relaxing)
 .debug_str     0x0000000000010ff8       0x56 build-MT7687Lite/extmod/vfs_reader.o
                                       0x1eb7 (size before relaxing)
 .debug_str     0x000000000001104e      0x582 build-MT7687Lite/extmod/vfs_fat.o
                                       0x4731 (size before relaxing)
 .debug_str     0x00000000000115d0       0xa4 build-MT7687Lite/extmod/vfs_fat_diskio.o
                                       0x1f07 (size before relaxing)
 .debug_str     0x0000000000011674      0x16c build-MT7687Lite/extmod/vfs_fat_file.o
                                       0x4610 (size before relaxing)
 .debug_str     0x00000000000117e0      0x1b0 build-MT7687Lite/extmod/utime_mphal.o
                                       0x206d (size before relaxing)
 .debug_str     0x0000000000011990       0x54 build-MT7687Lite/lib/utils/printf.o
                                       0x1640 (size before relaxing)
 .debug_str     0x00000000000119e4      0x461 build-MT7687Lite/main.o
                                       0x472b (size before relaxing)
 .debug_str     0x0000000000011e45       0xb5 build-MT7687Lite/mphalport.o
                                       0x1f21 (size before relaxing)
 .debug_str     0x0000000000011efa       0xee build-MT7687Lite/mpthreadport.o
                                       0x2162 (size before relaxing)
 .debug_str     0x0000000000011fe8       0x99 build-MT7687Lite/fatfs_port.o
                                       0x1c89 (size before relaxing)
 .debug_str     0x0000000000012081      0x10e build-MT7687Lite/chip/Source/system_MT7687.o
                                        0x737 (size before relaxing)
 .debug_str     0x000000000001218f       0x32 build-MT7687Lite/chip/Source/MT7687_GPIO.o
                                        0x66c (size before relaxing)
 .debug_str     0x00000000000121c1       0x49 build-MT7687Lite/chip/Source/MT7687_UART.o
                                        0x674 (size before relaxing)
 .debug_str     0x000000000001220a      0x25e build-MT7687Lite/chip/Source/MT7687_TIMR.o
                                        0x8a1 (size before relaxing)
 .debug_str     0x0000000000012468       0xb8 build-MT7687Lite/chip/Source/MT7687_PWM.o
                                        0x6f6 (size before relaxing)
 .debug_str     0x0000000000012520       0x5e build-MT7687Lite/chip/Source/MT7687_Flash.o
                                        0x6f8 (size before relaxing)
 .debug_str     0x000000000001257e      0x11a build-MT7687Lite/rtos/Source/list.o
                                        0x726 (size before relaxing)
 .debug_str     0x0000000000012698      0x527 build-MT7687Lite/rtos/Source/queue.o
                                        0xd3e (size before relaxing)
 .debug_str     0x0000000000012bbf      0x7c0 build-MT7687Lite/rtos/Source/tasks.o
                                       0x12ad (size before relaxing)
 .debug_str     0x000000000001337f       0xa8 build-MT7687Lite/rtos/Source/portable/ARM_CM4/port.o
                                        0x39f (size before relaxing)
 .debug_str     0x0000000000013427      0x1b9 build-MT7687Lite/rtos/Source/portable/MemMang/heap_4.o
                                        0x7dc (size before relaxing)
 .debug_str     0x00000000000135e0      0x168 build-MT7687Lite/mods/moduos.o
                                       0x4326 (size before relaxing)
 .debug_str     0x0000000000013748      0x373 build-MT7687Lite/mods/modmachine.o
                                       0x434f (size before relaxing)
 .debug_str     0x0000000000013abb       0xf2 build-MT7687Lite/mods/modutime.o
                                       0x408c (size before relaxing)
 .debug_str     0x0000000000013bad       0x50 build-MT7687Lite/mods/modubinascii.o
                                       0x3ead (size before relaxing)
 .debug_str     0x0000000000013bfd      0x376 build-MT7687Lite/mods/pybuart.o
                                       0x4932 (size before relaxing)
 .debug_str     0x0000000000013f73      0x192 build-MT7687Lite/mods/pybflash.o
                                       0x4291 (size before relaxing)
 .debug_str     0x0000000000014105       0xf9 build-MT7687Lite/mods/pybpin.o
                                       0x42e1 (size before relaxing)
 .debug_str     0x00000000000141fe      0x14f build-MT7687Lite/mods/pybtimer.o
                                       0x4509 (size before relaxing)
 .debug_str     0x000000000001434d      0x322 build-MT7687Lite/mods/pybpwm.o
                                       0x448d (size before relaxing)
 .debug_str     0x000000000001466f       0x2b build-MT7687Lite/misc/gccollect.o
                                       0x1c05 (size before relaxing)
 .debug_str     0x000000000001469a       0xdd build-MT7687Lite/misc/mperror.o
                                       0x205e (size before relaxing)
 .debug_str     0x0000000000014777       0x59 build-MT7687Lite/misc/random.o
                                       0x1950 (size before relaxing)
 .debug_str     0x00000000000147d0      0x11e build-MT7687Lite/misc/mpirq.o
                                       0x41fe (size before relaxing)
 .debug_str     0x00000000000148ee      0x26f build-MT7687Lite/lib/oofatfs/ff.o
                                        0xd99 (size before relaxing)
 .debug_str     0x0000000000014b5d       0x2d build-MT7687Lite/lib/oofatfs/option/unicode.o
                                        0x72d (size before relaxing)
 .debug_str     0x0000000000014b8a       0x50 build-MT7687Lite/lib/libc/string0.o
                                        0x6ac (size before relaxing)
 .debug_str     0x0000000000014bda      0x1f7 build-MT7687Lite/lib/mp-readline/readline.o
                                       0x21b0 (size before relaxing)
 .debug_str     0x0000000000014dd1       0xad build-MT7687Lite/lib/timeutils/timeutils.o
                                       0x1a82 (size before relaxing)
 .debug_str     0x0000000000014e7e       0x8b build-MT7687Lite/lib/utils/pyexec.o
                                       0x4a14 (size before relaxing)
 .debug_str     0x0000000000014f09       0x21 build-MT7687Lite/lib/utils/interrupt_char.o
                                       0x1ee0 (size before relaxing)
 .debug_str     0x0000000000014f2a       0xd0 build-MT7687Lite/lib/utils/sys_stdio_mphal.o
                                       0x3acf (size before relaxing)
 .debug_str     0x0000000000014ffa       0x2f build-MT7687Lite/pins.o
                                       0x393e (size before relaxing)

.debug_loc      0x0000000000000000    0x42925
 .debug_loc     0x0000000000000000       0x33 build-MT7687Lite/py/nlr.o
 .debug_loc     0x0000000000000033       0x7f build-MT7687Lite/py/nlrthumb.o
 .debug_loc     0x00000000000000b2      0x1ae build-MT7687Lite/py/malloc.o
 .debug_loc     0x0000000000000260      0xe82 build-MT7687Lite/py/gc.o
 .debug_loc     0x00000000000010e2      0x558 build-MT7687Lite/py/qstr.o
 .debug_loc     0x000000000000163a      0x8a7 build-MT7687Lite/py/vstr.o
 .debug_loc     0x0000000000001ee1     0x10fd build-MT7687Lite/py/mpprint.o
 .debug_loc     0x0000000000002fde      0x436 build-MT7687Lite/py/unicode.o
 .debug_loc     0x0000000000003414     0x31f7 build-MT7687Lite/py/mpz.o
 .debug_loc     0x000000000000660b      0x15c build-MT7687Lite/py/reader.o
 .debug_loc     0x0000000000006767      0xc8c build-MT7687Lite/py/lexer.o
 .debug_loc     0x00000000000073f3     0x155e build-MT7687Lite/py/parse.o
 .debug_loc     0x0000000000008951      0x3b8 build-MT7687Lite/py/scope.o
 .debug_loc     0x0000000000008d09     0x5e0d build-MT7687Lite/py/compile.o
 .debug_loc     0x000000000000eb16      0x218 build-MT7687Lite/py/emitcommon.o
 .debug_loc     0x000000000000ed2e     0x3413 build-MT7687Lite/py/emitbc.o
 .debug_loc     0x0000000000012141      0x162 build-MT7687Lite/py/parsenumbase.o
 .debug_loc     0x00000000000122a3      0x36d build-MT7687Lite/py/parsenum.o
 .debug_loc     0x0000000000012610      0x19d build-MT7687Lite/py/emitglue.o
 .debug_loc     0x00000000000127ad      0x57d build-MT7687Lite/py/persistentcode.o
 .debug_loc     0x0000000000012d2a     0x242a build-MT7687Lite/py/runtime.o
 .debug_loc     0x0000000000015154      0x120 build-MT7687Lite/py/runtime_utils.o
 .debug_loc     0x0000000000015274       0x1e build-MT7687Lite/py/stackctrl.o
 .debug_loc     0x0000000000015292      0x29d build-MT7687Lite/py/argcheck.o
 .debug_loc     0x000000000001552f      0x78b build-MT7687Lite/py/map.o
 .debug_loc     0x0000000000015cba      0xc03 build-MT7687Lite/py/obj.o
 .debug_loc     0x00000000000168bd     0x1089 build-MT7687Lite/py/objarray.o
 .debug_loc     0x0000000000017946      0x301 build-MT7687Lite/py/objattrtuple.o
 .debug_loc     0x0000000000017c47      0x3bc build-MT7687Lite/py/objbool.o
 .debug_loc     0x0000000000018003      0x26d build-MT7687Lite/py/objboundmeth.o
 .debug_loc     0x0000000000018270       0x6c build-MT7687Lite/py/objcell.o
 .debug_loc     0x00000000000182dc      0x21c build-MT7687Lite/py/objclosure.o
 .debug_loc     0x00000000000184f8     0x1385 build-MT7687Lite/py/objdict.o
 .debug_loc     0x000000000001987d      0x184 build-MT7687Lite/py/objenumerate.o
 .debug_loc     0x0000000000019a01      0xb9c build-MT7687Lite/py/objexcept.o
 .debug_loc     0x000000000001a59d      0x112 build-MT7687Lite/py/objfilter.o
 .debug_loc     0x000000000001a6af      0xcb8 build-MT7687Lite/py/objfun.o
 .debug_loc     0x000000000001b367      0x5bd build-MT7687Lite/py/objgenerator.o
 .debug_loc     0x000000000001b924       0xac build-MT7687Lite/py/objgetitemiter.o
 .debug_loc     0x000000000001b9d0      0xbd7 build-MT7687Lite/py/objint.o
 .debug_loc     0x000000000001c5a7      0xd99 build-MT7687Lite/py/objint_mpz.o
 .debug_loc     0x000000000001d340     0x11dc build-MT7687Lite/py/objlist.o
 .debug_loc     0x000000000001e51c      0x1ee build-MT7687Lite/py/objmap.o
 .debug_loc     0x000000000001e70a      0x411 build-MT7687Lite/py/objmodule.o
 .debug_loc     0x000000000001eb1b       0xf2 build-MT7687Lite/py/objobject.o
 .debug_loc     0x000000000001ec0d       0x42 build-MT7687Lite/py/objpolyiter.o
 .debug_loc     0x000000000001ec4f      0x1dc build-MT7687Lite/py/objproperty.o
 .debug_loc     0x000000000001ee2b       0x63 build-MT7687Lite/py/objnone.o
 .debug_loc     0x000000000001ee8e      0x51b build-MT7687Lite/py/objnamedtuple.o
 .debug_loc     0x000000000001f3a9      0x603 build-MT7687Lite/py/objrange.o
 .debug_loc     0x000000000001f9ac      0x178 build-MT7687Lite/py/objreversed.o
 .debug_loc     0x000000000001fb24     0x1710 build-MT7687Lite/py/objset.o
 .debug_loc     0x0000000000021234       0x84 build-MT7687Lite/py/objsingleton.o
 .debug_loc     0x00000000000212b8      0x208 build-MT7687Lite/py/objslice.o
 .debug_loc     0x00000000000214c0     0x3dc5 build-MT7687Lite/py/objstr.o
 .debug_loc     0x0000000000025285      0x86f build-MT7687Lite/py/objstrunicode.o
 .debug_loc     0x0000000000025af4      0x82d build-MT7687Lite/py/objstringio.o
 .debug_loc     0x0000000000026321      0xc48 build-MT7687Lite/py/objtuple.o
 .debug_loc     0x0000000000026f69     0x1e30 build-MT7687Lite/py/objtype.o
 .debug_loc     0x0000000000028d99      0x160 build-MT7687Lite/py/objzip.o
 .debug_loc     0x0000000000028ef9      0x23b build-MT7687Lite/py/opmethods.o
 .debug_loc     0x0000000000029134      0x7ff build-MT7687Lite/py/sequence.o
 .debug_loc     0x0000000000029933      0xd3f build-MT7687Lite/py/stream.o
 .debug_loc     0x000000000002a672      0xa02 build-MT7687Lite/py/binary.o
 .debug_loc     0x000000000002b074      0x9dc build-MT7687Lite/py/builtinimport.o
 .debug_loc     0x000000000002ba50      0x1d9 build-MT7687Lite/py/builtinevex.o
 .debug_loc     0x000000000002bc29      0x16c build-MT7687Lite/py/builtinhelp.o
 .debug_loc     0x000000000002bd95      0xf72 build-MT7687Lite/py/modbuiltins.o
 .debug_loc     0x000000000002cd07       0xc9 build-MT7687Lite/py/modgc.o
 .debug_loc     0x000000000002cdd0       0xbe build-MT7687Lite/py/modmicropython.o
 .debug_loc     0x000000000002ce8e      0x5d9 build-MT7687Lite/py/modstruct.o
 .debug_loc     0x000000000002d467      0x106 build-MT7687Lite/py/modsys.o
 .debug_loc     0x000000000002d56d       0x59 build-MT7687Lite/py/moduerrno.o
 .debug_loc     0x000000000002d5c6      0x3e5 build-MT7687Lite/py/modthread.o
 .debug_loc     0x000000000002d9ab     0x1a53 build-MT7687Lite/py/vm.o
 .debug_loc     0x000000000002f3fe      0x618 build-MT7687Lite/py/bc.o
 .debug_loc     0x000000000002fa16      0x6b8 build-MT7687Lite/py/repl.o
 .debug_loc     0x00000000000300ce       0xea build-MT7687Lite/py/smallint.o
 .debug_loc     0x00000000000301b8      0x476 build-MT7687Lite/extmod/modujson.o
 .debug_loc     0x000000000003062e     0x102d build-MT7687Lite/extmod/modure.o
 .debug_loc     0x000000000003165b      0x5ce build-MT7687Lite/extmod/modubinascii.o
 .debug_loc     0x0000000000031c29      0x92d build-MT7687Lite/extmod/moduselect.o
 .debug_loc     0x0000000000032556      0xb8b build-MT7687Lite/extmod/vfs.o
 .debug_loc     0x00000000000330e1      0x180 build-MT7687Lite/extmod/vfs_reader.o
 .debug_loc     0x0000000000033261      0xc21 build-MT7687Lite/extmod/vfs_fat.o
 .debug_loc     0x0000000000033e82      0x4b3 build-MT7687Lite/extmod/vfs_fat_diskio.o
 .debug_loc     0x0000000000034335      0x7d5 build-MT7687Lite/extmod/vfs_fat_file.o
 .debug_loc     0x0000000000034b0a      0x20c build-MT7687Lite/extmod/utime_mphal.o
 .debug_loc     0x0000000000034d16      0x1b2 build-MT7687Lite/lib/utils/printf.o
 .debug_loc     0x0000000000034ec8      0x12b build-MT7687Lite/main.o
 .debug_loc     0x0000000000034ff3      0x2a0 build-MT7687Lite/mphalport.o
 .debug_loc     0x0000000000035293      0x217 build-MT7687Lite/mpthreadport.o
 .debug_loc     0x00000000000354aa       0xa2 build-MT7687Lite/fatfs_port.o
 .debug_loc     0x000000000003554c       0x2a build-MT7687Lite/chip/Source/system_MT7687.o
 .debug_loc     0x0000000000035576      0x3e2 build-MT7687Lite/chip/Source/MT7687_GPIO.o
 .debug_loc     0x0000000000035958       0x83 build-MT7687Lite/chip/Source/MT7687_UART.o
 .debug_loc     0x00000000000359db       0xd3 build-MT7687Lite/chip/Source/MT7687_TIMR.o
 .debug_loc     0x0000000000035aae      0x18c build-MT7687Lite/chip/Source/MT7687_PWM.o
 .debug_loc     0x0000000000035c3a       0xc5 build-MT7687Lite/chip/Source/MT7687_Flash.o
 .debug_loc     0x0000000000035cff       0x94 build-MT7687Lite/rtos/Source/list.o
 .debug_loc     0x0000000000035d93      0xf3b build-MT7687Lite/rtos/Source/queue.o
 .debug_loc     0x0000000000036cce     0x1079 build-MT7687Lite/rtos/Source/tasks.o
 .debug_loc     0x0000000000037d47       0xa8 build-MT7687Lite/rtos/Source/portable/ARM_CM4/port.o
 .debug_loc     0x0000000000037def      0x34c build-MT7687Lite/rtos/Source/portable/MemMang/heap_4.o
 .debug_loc     0x000000000003813b      0x14b build-MT7687Lite/mods/moduos.o
 .debug_loc     0x0000000000038286       0xc6 build-MT7687Lite/mods/modmachine.o
 .debug_loc     0x000000000003834c       0xb0 build-MT7687Lite/mods/modutime.o
 .debug_loc     0x00000000000383fc      0xbdb build-MT7687Lite/mods/pybuart.o
 .debug_loc     0x0000000000038fd7      0x455 build-MT7687Lite/mods/pybflash.o
 .debug_loc     0x000000000003942c      0x58a build-MT7687Lite/mods/pybpin.o
 .debug_loc     0x00000000000399b6      0x43a build-MT7687Lite/mods/pybtimer.o
 .debug_loc     0x0000000000039df0      0x51f build-MT7687Lite/mods/pybpwm.o
 .debug_loc     0x000000000003a30f       0x1e build-MT7687Lite/misc/gccollect.o
 .debug_loc     0x000000000003a32d       0x97 build-MT7687Lite/misc/mperror.o
 .debug_loc     0x000000000003a3c4       0x13 build-MT7687Lite/misc/random.o
 .debug_loc     0x000000000003a3d7      0x3ff build-MT7687Lite/misc/mpirq.o
 .debug_loc     0x000000000003a7d6     0x4b9d build-MT7687Lite/lib/oofatfs/ff.o
 .debug_loc     0x000000000003f373      0x253 build-MT7687Lite/lib/oofatfs/option/unicode.o
 .debug_loc     0x000000000003f5c6      0x87e build-MT7687Lite/lib/libc/string0.o
 .debug_loc     0x000000000003fe44      0x745 build-MT7687Lite/lib/mp-readline/readline.o
 .debug_loc     0x0000000000040589     0x1c86 build-MT7687Lite/lib/timeutils/timeutils.o
 .debug_loc     0x000000000004220f      0x420 build-MT7687Lite/lib/utils/pyexec.o
 .debug_loc     0x000000000004262f       0x2d build-MT7687Lite/lib/utils/interrupt_char.o
 .debug_loc     0x000000000004265c      0x2c9 build-MT7687Lite/lib/utils/sys_stdio_mphal.o

.debug_ranges   0x0000000000000000     0x7970
 .debug_ranges  0x0000000000000000       0x18 build-MT7687Lite/py/nlr.o
 .debug_ranges  0x0000000000000018       0x18 build-MT7687Lite/py/nlrthumb.o
 .debug_ranges  0x0000000000000030       0x40 build-MT7687Lite/py/malloc.o
 .debug_ranges  0x0000000000000070      0x3a8 build-MT7687Lite/py/gc.o
 .debug_ranges  0x0000000000000418      0x150 build-MT7687Lite/py/qstr.o
 .debug_ranges  0x0000000000000568       0xe0 build-MT7687Lite/py/vstr.o
 .debug_ranges  0x0000000000000648       0xb8 build-MT7687Lite/py/mpprint.o
 .debug_ranges  0x0000000000000700       0xd8 build-MT7687Lite/py/unicode.o
 .debug_ranges  0x00000000000007d8      0x558 build-MT7687Lite/py/mpz.o
 .debug_ranges  0x0000000000000d30       0x20 build-MT7687Lite/py/reader.o
 .debug_ranges  0x0000000000000d50      0x210 build-MT7687Lite/py/lexer.o
 .debug_ranges  0x0000000000000f60      0x4b0 build-MT7687Lite/py/parse.o
 .debug_ranges  0x0000000000001410       0xf0 build-MT7687Lite/py/scope.o
 .debug_ranges  0x0000000000001500      0xe18 build-MT7687Lite/py/compile.o
 .debug_ranges  0x0000000000002318       0x20 build-MT7687Lite/py/emitcommon.o
 .debug_ranges  0x0000000000002338      0x668 build-MT7687Lite/py/emitbc.o
 .debug_ranges  0x00000000000029a0       0x10 build-MT7687Lite/py/parsenumbase.o
 .debug_ranges  0x00000000000029b0       0x20 build-MT7687Lite/py/parsenum.o
 .debug_ranges  0x00000000000029d0       0x28 build-MT7687Lite/py/emitglue.o
 .debug_ranges  0x00000000000029f8       0xd0 build-MT7687Lite/py/persistentcode.o
 .debug_ranges  0x0000000000002ac8      0x3e8 build-MT7687Lite/py/runtime.o
 .debug_ranges  0x0000000000002eb0       0x18 build-MT7687Lite/py/runtime_utils.o
 .debug_ranges  0x0000000000002ec8       0x20 build-MT7687Lite/py/stackctrl.o
 .debug_ranges  0x0000000000002ee8       0x98 build-MT7687Lite/py/argcheck.o
 .debug_ranges  0x0000000000002f80      0x1b0 build-MT7687Lite/py/map.o
 .debug_ranges  0x0000000000003130      0x148 build-MT7687Lite/py/obj.o
 .debug_ranges  0x0000000000003278      0x190 build-MT7687Lite/py/objarray.o
 .debug_ranges  0x0000000000003408       0x60 build-MT7687Lite/py/objattrtuple.o
 .debug_ranges  0x0000000000003468       0x70 build-MT7687Lite/py/objbool.o
 .debug_ranges  0x00000000000034d8       0x20 build-MT7687Lite/py/objboundmeth.o
 .debug_ranges  0x00000000000034f8       0x20 build-MT7687Lite/py/objcell.o
 .debug_ranges  0x0000000000003518       0x18 build-MT7687Lite/py/objclosure.o
 .debug_ranges  0x0000000000003530      0x238 build-MT7687Lite/py/objdict.o
 .debug_ranges  0x0000000000003768       0x18 build-MT7687Lite/py/objenumerate.o
 .debug_ranges  0x0000000000003780       0xc8 build-MT7687Lite/py/objexcept.o
 .debug_ranges  0x0000000000003848       0x30 build-MT7687Lite/py/objfilter.o
 .debug_ranges  0x0000000000003878       0xa8 build-MT7687Lite/py/objfun.o
 .debug_ranges  0x0000000000003920       0xa0 build-MT7687Lite/py/objgenerator.o
 .debug_ranges  0x00000000000039c0       0x18 build-MT7687Lite/py/objgetitemiter.o
 .debug_ranges  0x00000000000039d8       0xb0 build-MT7687Lite/py/objint.o
 .debug_ranges  0x0000000000003a88       0xf8 build-MT7687Lite/py/objint_mpz.o
 .debug_ranges  0x0000000000003b80      0x230 build-MT7687Lite/py/objlist.o
 .debug_ranges  0x0000000000003db0       0x60 build-MT7687Lite/py/objmap.o
 .debug_ranges  0x0000000000003e10       0x30 build-MT7687Lite/py/objmodule.o
 .debug_ranges  0x0000000000003e40       0x20 build-MT7687Lite/py/objobject.o
 .debug_ranges  0x0000000000003e60       0x10 build-MT7687Lite/py/objpolyiter.o
 .debug_ranges  0x0000000000003e70       0x30 build-MT7687Lite/py/objproperty.o
 .debug_ranges  0x0000000000003ea0       0x10 build-MT7687Lite/py/objnone.o
 .debug_ranges  0x0000000000003eb0       0x80 build-MT7687Lite/py/objnamedtuple.o
 .debug_ranges  0x0000000000003f30       0x60 build-MT7687Lite/py/objrange.o
 .debug_ranges  0x0000000000003f90       0x18 build-MT7687Lite/py/objreversed.o
 .debug_ranges  0x0000000000003fa8      0x208 build-MT7687Lite/py/objset.o
 .debug_ranges  0x00000000000041b0       0x10 build-MT7687Lite/py/objsingleton.o
 .debug_ranges  0x00000000000041c0       0x20 build-MT7687Lite/py/objslice.o
 .debug_ranges  0x00000000000041e0      0x6a0 build-MT7687Lite/py/objstr.o
 .debug_ranges  0x0000000000004880       0xd0 build-MT7687Lite/py/objstrunicode.o
 .debug_ranges  0x0000000000004950       0x58 build-MT7687Lite/py/objstringio.o
 .debug_ranges  0x00000000000049a8      0x128 build-MT7687Lite/py/objtuple.o
 .debug_ranges  0x0000000000004ad0      0x438 build-MT7687Lite/py/objtype.o
 .debug_ranges  0x0000000000004f08       0x68 build-MT7687Lite/py/objzip.o
 .debug_ranges  0x0000000000004f70       0x28 build-MT7687Lite/py/opmethods.o
 .debug_ranges  0x0000000000004f98       0xc0 build-MT7687Lite/py/sequence.o
 .debug_ranges  0x0000000000005058      0x190 build-MT7687Lite/py/stream.o
 .debug_ranges  0x00000000000051e8       0x90 build-MT7687Lite/py/binary.o
 .debug_ranges  0x0000000000005278       0xf0 build-MT7687Lite/py/builtinimport.o
 .debug_ranges  0x0000000000005368       0x58 build-MT7687Lite/py/builtinevex.o
 .debug_ranges  0x00000000000053c0       0x48 build-MT7687Lite/py/builtinhelp.o
 .debug_ranges  0x0000000000005408      0x218 build-MT7687Lite/py/modbuiltins.o
 .debug_ranges  0x0000000000005620       0x40 build-MT7687Lite/py/modgc.o
 .debug_ranges  0x0000000000005660       0x28 build-MT7687Lite/py/modmicropython.o
 .debug_ranges  0x0000000000005688       0x78 build-MT7687Lite/py/modstruct.o
 .debug_ranges  0x0000000000005700       0x18 build-MT7687Lite/py/modsys.o
 .debug_ranges  0x0000000000005718       0x10 build-MT7687Lite/py/moduerrno.o
 .debug_ranges  0x0000000000005728       0x88 build-MT7687Lite/py/modthread.o
 .debug_ranges  0x00000000000057b0      0x368 build-MT7687Lite/py/vm.o
 .debug_ranges  0x0000000000005b18      0x170 build-MT7687Lite/py/bc.o
 .debug_ranges  0x0000000000005c88      0x100 build-MT7687Lite/py/repl.o
 .debug_ranges  0x0000000000005d88       0x20 build-MT7687Lite/py/smallint.o
 .debug_ranges  0x0000000000005da8       0x58 build-MT7687Lite/extmod/modujson.o
 .debug_ranges  0x0000000000005e00      0x118 build-MT7687Lite/extmod/modure.o
 .debug_ranges  0x0000000000005f18       0xe0 build-MT7687Lite/extmod/modubinascii.o
 .debug_ranges  0x0000000000005ff8      0x178 build-MT7687Lite/extmod/moduselect.o
 .debug_ranges  0x0000000000006170      0x160 build-MT7687Lite/extmod/vfs.o
 .debug_ranges  0x00000000000062d0       0x20 build-MT7687Lite/extmod/vfs_reader.o
 .debug_ranges  0x00000000000062f0       0xd0 build-MT7687Lite/extmod/vfs_fat.o
 .debug_ranges  0x00000000000063c0       0x20 build-MT7687Lite/extmod/vfs_fat_diskio.o
 .debug_ranges  0x00000000000063e0       0x90 build-MT7687Lite/extmod/vfs_fat_file.o
 .debug_ranges  0x0000000000006470       0x48 build-MT7687Lite/extmod/utime_mphal.o
 .debug_ranges  0x00000000000064b8       0x40 build-MT7687Lite/lib/utils/printf.o
 .debug_ranges  0x00000000000064f8       0x40 build-MT7687Lite/main.o
 .debug_ranges  0x0000000000006538       0x70 build-MT7687Lite/mphalport.o
 .debug_ranges  0x00000000000065a8       0x78 build-MT7687Lite/mpthreadport.o
 .debug_ranges  0x0000000000006620       0x30 build-MT7687Lite/fatfs_port.o
 .debug_ranges  0x0000000000006650       0x20 build-MT7687Lite/chip/Source/system_MT7687.o
 .debug_ranges  0x0000000000006670       0x38 build-MT7687Lite/chip/Source/MT7687_GPIO.o
 .debug_ranges  0x00000000000066a8       0x10 build-MT7687Lite/chip/Source/MT7687_UART.o
 .debug_ranges  0x00000000000066b8       0x38 build-MT7687Lite/chip/Source/MT7687_TIMR.o
 .debug_ranges  0x00000000000066f0       0x58 build-MT7687Lite/chip/Source/MT7687_PWM.o
 .debug_ranges  0x0000000000006748       0x10 build-MT7687Lite/chip/Source/MT7687_Flash.o
 .debug_ranges  0x0000000000006758       0x30 build-MT7687Lite/rtos/Source/list.o
 .debug_ranges  0x0000000000006788      0x1c0 build-MT7687Lite/rtos/Source/queue.o
 .debug_ranges  0x0000000000006948      0x200 build-MT7687Lite/rtos/Source/tasks.o
 .debug_ranges  0x0000000000006b48       0x60 build-MT7687Lite/rtos/Source/portable/ARM_CM4/port.o
 .debug_ranges  0x0000000000006ba8       0x38 build-MT7687Lite/rtos/Source/portable/MemMang/heap_4.o
 .debug_ranges  0x0000000000006be0       0x48 build-MT7687Lite/mods/moduos.o
 .debug_ranges  0x0000000000006c28       0x60 build-MT7687Lite/mods/modmachine.o
 .debug_ranges  0x0000000000006c88       0x40 build-MT7687Lite/mods/modutime.o
 .debug_ranges  0x0000000000006cc8      0x160 build-MT7687Lite/mods/pybuart.o
 .debug_ranges  0x0000000000006e28       0x50 build-MT7687Lite/mods/pybflash.o
 .debug_ranges  0x0000000000006e78       0x88 build-MT7687Lite/mods/pybpin.o
 .debug_ranges  0x0000000000006f00       0x68 build-MT7687Lite/mods/pybtimer.o
 .debug_ranges  0x0000000000006f68       0x48 build-MT7687Lite/mods/pybpwm.o
 .debug_ranges  0x0000000000006fb0       0x10 build-MT7687Lite/misc/gccollect.o
 .debug_ranges  0x0000000000006fc0       0x50 build-MT7687Lite/misc/mperror.o
 .debug_ranges  0x0000000000007010       0x20 build-MT7687Lite/misc/random.o
 .debug_ranges  0x0000000000007030       0xf0 build-MT7687Lite/misc/mpirq.o
 .debug_ranges  0x0000000000007120      0x4c0 build-MT7687Lite/lib/oofatfs/ff.o
 .debug_ranges  0x00000000000075e0       0x18 build-MT7687Lite/lib/oofatfs/option/unicode.o
 .debug_ranges  0x00000000000075f8      0x148 build-MT7687Lite/lib/libc/string0.o
 .debug_ranges  0x0000000000007740       0x90 build-MT7687Lite/lib/mp-readline/readline.o
 .debug_ranges  0x00000000000077d0       0x38 build-MT7687Lite/lib/timeutils/timeutils.o
 .debug_ranges  0x0000000000007808      0x110 build-MT7687Lite/lib/utils/pyexec.o
 .debug_ranges  0x0000000000007918       0x18 build-MT7687Lite/lib/utils/interrupt_char.o
 .debug_ranges  0x0000000000007930       0x40 build-MT7687Lite/lib/utils/sys_stdio_mphal.o

.debug_frame    0x0000000000000000     0x9c54
 .debug_frame   0x0000000000000000       0x40 build-MT7687Lite/py/nlr.o
 .debug_frame   0x0000000000000040       0x38 build-MT7687Lite/py/nlrthumb.o
 .debug_frame   0x0000000000000078       0x98 build-MT7687Lite/py/malloc.o
 .debug_frame   0x0000000000000110      0x248 build-MT7687Lite/py/gc.o
 .debug_frame   0x0000000000000358      0x12c build-MT7687Lite/py/qstr.o
 .debug_frame   0x0000000000000484      0x288 build-MT7687Lite/py/vstr.o
 .debug_frame   0x000000000000070c      0x120 build-MT7687Lite/py/mpprint.o
 .debug_frame   0x000000000000082c      0x118 build-MT7687Lite/py/unicode.o
 .debug_frame   0x0000000000000944      0x4f4 build-MT7687Lite/py/mpz.o
 .debug_frame   0x0000000000000e38       0x5c build-MT7687Lite/py/reader.o
 .debug_frame   0x0000000000000e94      0x100 build-MT7687Lite/py/lexer.o
 .debug_frame   0x0000000000000f94      0x1a8 build-MT7687Lite/py/parse.o
 .debug_frame   0x000000000000113c       0xb8 build-MT7687Lite/py/scope.o
 .debug_frame   0x00000000000011f4      0xb9c build-MT7687Lite/py/compile.o
 .debug_frame   0x0000000000001d90       0x78 build-MT7687Lite/py/emitcommon.o
 .debug_frame   0x0000000000001e08      0x8d4 build-MT7687Lite/py/emitbc.o
 .debug_frame   0x00000000000026dc       0x28 build-MT7687Lite/py/parsenumbase.o
 .debug_frame   0x0000000000002704       0x68 build-MT7687Lite/py/parsenum.o
 .debug_frame   0x000000000000276c       0x84 build-MT7687Lite/py/emitglue.o
 .debug_frame   0x00000000000027f0       0xe0 build-MT7687Lite/py/persistentcode.o
 .debug_frame   0x00000000000028d0      0x540 build-MT7687Lite/py/runtime.o
 .debug_frame   0x0000000000002e10       0x58 build-MT7687Lite/py/runtime_utils.o
 .debug_frame   0x0000000000002e68       0x58 build-MT7687Lite/py/stackctrl.o
 .debug_frame   0x0000000000002ec0       0xa8 build-MT7687Lite/py/argcheck.o
 .debug_frame   0x0000000000002f68      0x164 build-MT7687Lite/py/map.o
 .debug_frame   0x00000000000030cc      0x270 build-MT7687Lite/py/obj.o
 .debug_frame   0x000000000000333c      0x268 build-MT7687Lite/py/objarray.o
 .debug_frame   0x00000000000035a4       0x8c build-MT7687Lite/py/objattrtuple.o
 .debug_frame   0x0000000000003630       0x60 build-MT7687Lite/py/objbool.o
 .debug_frame   0x0000000000003690       0x74 build-MT7687Lite/py/objboundmeth.o
 .debug_frame   0x0000000000003704       0x48 build-MT7687Lite/py/objcell.o
 .debug_frame   0x000000000000374c       0x60 build-MT7687Lite/py/objclosure.o
 .debug_frame   0x00000000000037ac      0x338 build-MT7687Lite/py/objdict.o
 .debug_frame   0x0000000000003ae4       0x4c build-MT7687Lite/py/objenumerate.o
 .debug_frame   0x0000000000003b30      0x22c build-MT7687Lite/py/objexcept.o
 .debug_frame   0x0000000000003d5c       0x50 build-MT7687Lite/py/objfilter.o
 .debug_frame   0x0000000000003dac      0x188 build-MT7687Lite/py/objfun.o
 .debug_frame   0x0000000000003f34      0x124 build-MT7687Lite/py/objgenerator.o
 .debug_frame   0x0000000000004058       0x44 build-MT7687Lite/py/objgetitemiter.o
 .debug_frame   0x000000000000409c      0x12c build-MT7687Lite/py/objint.o
 .debug_frame   0x00000000000041c8      0x1a0 build-MT7687Lite/py/objint_mpz.o
 .debug_frame   0x0000000000004368      0x2ec build-MT7687Lite/py/objlist.o
 .debug_frame   0x0000000000004654       0x64 build-MT7687Lite/py/objmap.o
 .debug_frame   0x00000000000046b8       0xa4 build-MT7687Lite/py/objmodule.o
 .debug_frame   0x000000000000475c       0x54 build-MT7687Lite/py/objobject.o
 .debug_frame   0x00000000000047b0       0x20 build-MT7687Lite/py/objpolyiter.o
 .debug_frame   0x00000000000047d0       0x94 build-MT7687Lite/py/objproperty.o
 .debug_frame   0x0000000000004864       0x20 build-MT7687Lite/py/objnone.o
 .debug_frame   0x0000000000004884       0xc8 build-MT7687Lite/py/objnamedtuple.o
 .debug_frame   0x000000000000494c       0xf0 build-MT7687Lite/py/objrange.o
 .debug_frame   0x0000000000004a3c       0x44 build-MT7687Lite/py/objreversed.o
 .debug_frame   0x0000000000004a80      0x344 build-MT7687Lite/py/objset.o
 .debug_frame   0x0000000000004dc4       0x20 build-MT7687Lite/py/objsingleton.o
 .debug_frame   0x0000000000004de4       0x6c build-MT7687Lite/py/objslice.o
 .debug_frame   0x0000000000004e50      0x6f4 build-MT7687Lite/py/objstr.o
 .debug_frame   0x0000000000005544       0xdc build-MT7687Lite/py/objstrunicode.o
 .debug_frame   0x0000000000005620       0xe4 build-MT7687Lite/py/objstringio.o
 .debug_frame   0x0000000000005704      0x174 build-MT7687Lite/py/objtuple.o
 .debug_frame   0x0000000000005878      0x414 build-MT7687Lite/py/objtype.o
 .debug_frame   0x0000000000005c8c       0x5c build-MT7687Lite/py/objzip.o
 .debug_frame   0x0000000000005ce8       0xa0 build-MT7687Lite/py/opmethods.o
 .debug_frame   0x0000000000005d88      0x104 build-MT7687Lite/py/sequence.o
 .debug_frame   0x0000000000005e8c      0x220 build-MT7687Lite/py/stream.o
 .debug_frame   0x00000000000060ac      0x10c build-MT7687Lite/py/binary.o
 .debug_frame   0x00000000000061b8       0xbc build-MT7687Lite/py/builtinimport.o
 .debug_frame   0x0000000000006274       0x68 build-MT7687Lite/py/builtinevex.o
 .debug_frame   0x00000000000062dc       0x34 build-MT7687Lite/py/builtinhelp.o
 .debug_frame   0x0000000000006310      0x360 build-MT7687Lite/py/modbuiltins.o
 .debug_frame   0x0000000000006670       0xb0 build-MT7687Lite/py/modgc.o
 .debug_frame   0x0000000000006720       0x70 build-MT7687Lite/py/modmicropython.o
 .debug_frame   0x0000000000006790      0x124 build-MT7687Lite/py/modstruct.o
 .debug_frame   0x00000000000068b4       0x48 build-MT7687Lite/py/modsys.o
 .debug_frame   0x00000000000068fc       0x20 build-MT7687Lite/py/moduerrno.o
 .debug_frame   0x000000000000691c      0x118 build-MT7687Lite/py/modthread.o
 .debug_frame   0x0000000000006a34       0x48 build-MT7687Lite/py/vm.o
 .debug_frame   0x0000000000006a7c       0x9c build-MT7687Lite/py/bc.o
 .debug_frame   0x0000000000006b18       0x78 build-MT7687Lite/py/repl.o
 .debug_frame   0x0000000000006b90       0x40 build-MT7687Lite/py/smallint.o
 .debug_frame   0x0000000000006bd0       0xb4 build-MT7687Lite/extmod/modujson.o
 .debug_frame   0x0000000000006c84      0x248 build-MT7687Lite/extmod/modure.o
 .debug_frame   0x0000000000006ecc       0xac build-MT7687Lite/extmod/modubinascii.o
 .debug_frame   0x0000000000006f78      0x18c build-MT7687Lite/extmod/moduselect.o
 .debug_frame   0x0000000000007104      0x248 build-MT7687Lite/extmod/vfs.o
 .debug_frame   0x000000000000734c       0x6c build-MT7687Lite/extmod/vfs_reader.o
 .debug_frame   0x00000000000073b8      0x1f8 build-MT7687Lite/extmod/vfs_fat.o
 .debug_frame   0x00000000000075b0       0x74 build-MT7687Lite/extmod/vfs_fat_diskio.o
 .debug_frame   0x0000000000007624       0xf8 build-MT7687Lite/extmod/vfs_fat_file.o
 .debug_frame   0x000000000000771c       0xc8 build-MT7687Lite/extmod/utime_mphal.o
 .debug_frame   0x00000000000077e4       0xe8 build-MT7687Lite/lib/utils/printf.o
 .debug_frame   0x00000000000078cc       0x7c build-MT7687Lite/main.o
 .debug_frame   0x0000000000007948      0x110 build-MT7687Lite/mphalport.o
 .debug_frame   0x0000000000007a58      0x118 build-MT7687Lite/mpthreadport.o
 .debug_frame   0x0000000000007b70       0x78 build-MT7687Lite/fatfs_port.o
 .debug_frame   0x0000000000007be8       0x48 build-MT7687Lite/chip/Source/system_MT7687.o
 .debug_frame   0x0000000000007c30       0x78 build-MT7687Lite/chip/Source/MT7687_GPIO.o
 .debug_frame   0x0000000000007ca8       0x28 build-MT7687Lite/chip/Source/MT7687_UART.o
 .debug_frame   0x0000000000007cd0       0x7c build-MT7687Lite/chip/Source/MT7687_TIMR.o
 .debug_frame   0x0000000000007d4c       0xb0 build-MT7687Lite/chip/Source/MT7687_PWM.o
 .debug_frame   0x0000000000007dfc       0x38 build-MT7687Lite/chip/Source/MT7687_Flash.o
 .debug_frame   0x0000000000007e34       0x6c build-MT7687Lite/rtos/Source/list.o
 .debug_frame   0x0000000000007ea0      0x248 build-MT7687Lite/rtos/Source/queue.o
 .debug_frame   0x00000000000080e8      0x42c build-MT7687Lite/rtos/Source/tasks.o
 .debug_frame   0x0000000000008514       0xd0 build-MT7687Lite/rtos/Source/portable/ARM_CM4/port.o
 .debug_frame   0x00000000000085e4       0x98 build-MT7687Lite/rtos/Source/portable/MemMang/heap_4.o
 .debug_frame   0x000000000000867c       0x80 build-MT7687Lite/mods/moduos.o
 .debug_frame   0x00000000000086fc       0xc8 build-MT7687Lite/mods/modmachine.o
 .debug_frame   0x00000000000087c4       0x7c build-MT7687Lite/mods/modutime.o
 .debug_frame   0x0000000000008840      0x268 build-MT7687Lite/mods/pybuart.o
 .debug_frame   0x0000000000008aa8      0x108 build-MT7687Lite/mods/pybflash.o
 .debug_frame   0x0000000000008bb0      0x108 build-MT7687Lite/mods/pybpin.o
 .debug_frame   0x0000000000008cb8       0xd8 build-MT7687Lite/mods/pybtimer.o
 .debug_frame   0x0000000000008d90       0xfc build-MT7687Lite/mods/pybpwm.o
 .debug_frame   0x0000000000008e8c       0x30 build-MT7687Lite/misc/gccollect.o
 .debug_frame   0x0000000000008ebc       0xc8 build-MT7687Lite/misc/mperror.o
 .debug_frame   0x0000000000008f84       0x54 build-MT7687Lite/misc/random.o
 .debug_frame   0x0000000000008fd8      0x174 build-MT7687Lite/misc/mpirq.o
 .debug_frame   0x000000000000914c      0x678 build-MT7687Lite/lib/oofatfs/ff.o
 .debug_frame   0x00000000000097c4       0x44 build-MT7687Lite/lib/oofatfs/option/unicode.o
 .debug_frame   0x0000000000009808      0x148 build-MT7687Lite/lib/libc/string0.o
 .debug_frame   0x0000000000009950       0xf4 build-MT7687Lite/lib/mp-readline/readline.o
 .debug_frame   0x0000000000009a44       0xbc build-MT7687Lite/lib/timeutils/timeutils.o
 .debug_frame   0x0000000000009b00       0xb4 build-MT7687Lite/lib/utils/pyexec.o
 .debug_frame   0x0000000000009bb4       0x38 build-MT7687Lite/lib/utils/interrupt_char.o
 .debug_frame   0x0000000000009bec       0x68 build-MT7687Lite/lib/utils/sys_stdio_mphal.o
